Archive member included because of file (symbol)

build\libvuengine.a(crt0.o)   (_start)
build\libvuengine.a(Game.o)   C:/vbde/samples/vuengine/capitan-sevilla/lib/compiler/setupClasses.o (_Game_setVTable)
build\libvuengine.a(Error.o)  C:/vbde/samples/vuengine/capitan-sevilla/lib/compiler/setupClasses.o (_Error_setVTable)
build\libvuengine.a(FrameRate.o)
                              C:/vbde/samples/vuengine/capitan-sevilla/lib/compiler/setupClasses.o (_FrameRate_setVTable)
build\libvuengine.a(I18n.o)   C:/vbde/samples/vuengine/capitan-sevilla/lib/compiler/setupClasses.o (_I18n_setVTable)
build\libvuengine.a(VirtualNode.o)
                              C:/vbde/samples/vuengine/capitan-sevilla/lib/compiler/setupClasses.o (_VirtualNode_setVTable)
build\libvuengine.a(VirtualList.o)
                              C:/vbde/samples/vuengine/capitan-sevilla/lib/compiler/setupClasses.o (_VirtualList_setVTable)
build\libvuengine.a(State.o)  build/tools/./source/objects/actors/Hero/states/HeroState.o (_State_getBaseClass)
build\libvuengine.a(Clock.o)  build\libvuengine.a(Game.o) (_Clock_destructor)
build\libvuengine.a(Object.o)
                              build/tools/./source/components/ProgressManager.o (_Object_getBaseClass)
build\libvuengine.a(MemoryPool.o)
                              C:/vbde/samples/vuengine/capitan-sevilla/lib/compiler/setupClasses.o (_MemoryPool_setVTable)
build\libvuengine.a(ClockManager.o)
                              C:/vbde/samples/vuengine/capitan-sevilla/lib/compiler/setupClasses.o (_ClockManager_setVTable)
build\libvuengine.a(MessageDispatcher.o)
                              C:/vbde/samples/vuengine/capitan-sevilla/lib/compiler/setupClasses.o (_MessageDispatcher_setVTable)
build\libvuengine.a(Telegram.o)
                              C:/vbde/samples/vuengine/capitan-sevilla/lib/compiler/setupClasses.o (_Telegram_setVTable)
build\libvuengine.a(StateMachine.o)
                              build\libvuengine.a(Game.o) (_StateMachine_handleMessage)
build\libvuengine.a(Mem.o)    build/tools/./source/components/PostProcessingEffects.o (_memcpy)
build\libvuengine.a(Utilities.o)
                              build\libvuengine.a(Game.o) (_Utilities_setClock)
build\libvuengine.a(Math.o)   build/tools/./source/components/PostProcessingEffects.o (_Math_squareRoot)
build\libvuengine.a(CameraEffectManager.o)
                              build/tools/./source/components/CustomCameraEffectManager.o (_CameraEffectManager_getBaseClass)
build\libvuengine.a(CameraMovementManager.o)
                              build/tools/./source/components/CustomCameraMovementManager.o (_CameraMovementManager_getBaseClass)
build\libvuengine.a(Camera.o)
                              C:/vbde/samples/vuengine/capitan-sevilla/lib/compiler/setupClasses.o (_Camera_setVTable)
build\libvuengine.a(Printing.o)
                              C:/vbde/samples/vuengine/capitan-sevilla/lib/compiler/setupClasses.o (_Printing_setVTable)
build\libvuengine.a(SpriteManager.o)
                              C:/vbde/samples/vuengine/capitan-sevilla/lib/compiler/setupClasses.o (_SpriteManager_setVTable)
build\libvuengine.a(Sprite.o)
                              build/tools/./source/components/graphics/HbiasMaskMBgmapSprite.o (_Sprite_show)
build\libvuengine.a(AnimationCoordinator.o)
                              C:/vbde/samples/vuengine/capitan-sevilla/lib/compiler/setupClasses.o (_AnimationCoordinator_setVTable)
build\libvuengine.a(AnimationController.o)
                              C:/vbde/samples/vuengine/capitan-sevilla/lib/compiler/setupClasses.o (_AnimationController_setVTable)
build\libvuengine.a(AnimationCoordinatorFactory.o)
                              C:/vbde/samples/vuengine/capitan-sevilla/lib/compiler/setupClasses.o (_AnimationCoordinatorFactory_setVTable)
build\libvuengine.a(BgmapSprite.o)
                              build/tools/./source/components/graphics/HbiasMaskMBgmapSprite.o (_BgmapSprite_getScale)
build\libvuengine.a(ParamTableManager.o)
                              C:/vbde/samples/vuengine/capitan-sevilla/lib/compiler/setupClasses.o (_ParamTableManager_setVTable)
build\libvuengine.a(BgmapAnimationCoordinator.o)
                              C:/vbde/samples/vuengine/capitan-sevilla/lib/compiler/setupClasses.o (_BgmapAnimationCoordinator_setVTable)
build\libvuengine.a(MBgmapSprite.o)
                              build/tools/./source/components/graphics/HbiasMaskMBgmapSprite.o (_MBgmapSprite_getBaseClass)
build\libvuengine.a(BgmapAnimatedSprite.o)
                              build/tools/./source/components/graphics/GUISprite.o (_BgmapAnimatedSprite_getBaseClass)
build\libvuengine.a(ObjectSpriteContainer.o)
                              C:/vbde/samples/vuengine/capitan-sevilla/lib/compiler/setupClasses.o (_ObjectSpriteContainer_setVTable)
build\libvuengine.a(ObjectAnimatedSprite.o)
                              build\libvuengine.a(AnimationCoordinatorFactory.o) (_ObjectAnimatedSprite_getBaseClass)
build\libvuengine.a(ObjectSpriteContainerManager.o)
                              C:/vbde/samples/vuengine/capitan-sevilla/lib/compiler/setupClasses.o (_ObjectSpriteContainerManager_setVTable)
build\libvuengine.a(ObjectSprite.o)
                              build\libvuengine.a(SpriteManager.o) (_ObjectSprite_getBaseClass)
build\libvuengine.a(ObjectAnimationCoordinator.o)
                              C:/vbde/samples/vuengine/capitan-sevilla/lib/compiler/setupClasses.o (_ObjectAnimationCoordinator_setVTable)
build\libvuengine.a(Texture.o)
                              C:/vbde/samples/vuengine/capitan-sevilla/lib/compiler/setupClasses.o (_Texture_setVTable)
build\libvuengine.a(BgmapTextureManager.o)
                              C:/vbde/samples/vuengine/capitan-sevilla/lib/compiler/setupClasses.o (_BgmapTextureManager_setVTable)
build\libvuengine.a(BgmapTexture.o)
                              build\libvuengine.a(Sprite.o) (_BgmapTexture_getBaseClass)
build\libvuengine.a(CharSetManager.o)
                              C:/vbde/samples/vuengine/capitan-sevilla/lib/compiler/setupClasses.o (_CharSetManager_setVTable)
build\libvuengine.a(CharSet.o)
                              C:/vbde/samples/vuengine/capitan-sevilla/lib/compiler/setupClasses.o (_CharSet_setVTable)
build\libvuengine.a(ObjectTexture.o)
                              C:/vbde/samples/vuengine/capitan-sevilla/lib/compiler/setupClasses.o (_ObjectTexture_setVTable)
build\libvuengine.a(Wireframe.o)
                              C:/vbde/samples/vuengine/capitan-sevilla/lib/compiler/setupClasses.o (_Wireframe_setVTable)
build\libvuengine.a(Polyhedron.o)
                              C:/vbde/samples/vuengine/capitan-sevilla/lib/compiler/setupClasses.o (_Polyhedron_setVTable)
build\libvuengine.a(DirectDraw.o)
                              C:/vbde/samples/vuengine/capitan-sevilla/lib/compiler/setupClasses.o (_DirectDraw_setVTable)
build\libvuengine.a(Sphere.o)
                              C:/vbde/samples/vuengine/capitan-sevilla/lib/compiler/setupClasses.o (_Sphere_setVTable)
build\libvuengine.a(WireframeManager.o)
                              C:/vbde/samples/vuengine/capitan-sevilla/lib/compiler/setupClasses.o (_WireframeManager_setVTable)
build\libvuengine.a(HardwareManager.o)
                              C:/vbde/samples/vuengine/capitan-sevilla/lib/compiler/setupClasses.o (_HardwareManager_setVTable)
build\libvuengine.a(SRAMManager.o)
                              C:/vbde/samples/vuengine/capitan-sevilla/lib/compiler/setupClasses.o (_SRAMManager_setVTable)
build\libvuengine.a(KeyPadManager.o)
                              C:/vbde/samples/vuengine/capitan-sevilla/lib/compiler/setupClasses.o (_KeypadManager_setVTable)
build\libvuengine.a(TimerManager.o)
                              C:/vbde/samples/vuengine/capitan-sevilla/lib/compiler/setupClasses.o (_TimerManager_setVTable)
build\libvuengine.a(VIPManager.o)
                              C:/vbde/samples/vuengine/capitan-sevilla/lib/compiler/setupClasses.o (_VIPManager_setVTable)
build\libvuengine.a(SoundManager.o)
                              C:/vbde/samples/vuengine/capitan-sevilla/lib/compiler/setupClasses.o (_SoundManager_setVTable)
build\libvuengine.a(Shape.o)  C:/vbde/samples/vuengine/capitan-sevilla/lib/compiler/setupClasses.o (_Shape_setVTable)
build\libvuengine.a(CollisionManager.o)
                              C:/vbde/samples/vuengine/capitan-sevilla/lib/compiler/setupClasses.o (_CollisionManager_setVTable)
build\libvuengine.a(CollisionHelper.o)
                              C:/vbde/samples/vuengine/capitan-sevilla/lib/compiler/setupClasses.o (_CollisionHelper_setVTable)
build\libvuengine.a(PhysicalWorld.o)
                              C:/vbde/samples/vuengine/capitan-sevilla/lib/compiler/setupClasses.o (_PhysicalWorld_setVTable)
build\libvuengine.a(InverseBox.o)
                              C:/vbde/samples/vuengine/capitan-sevilla/lib/compiler/setupClasses.o (_InverseBox_setVTable)
build\libvuengine.a(Body.o)   C:/vbde/samples/vuengine/capitan-sevilla/lib/compiler/setupClasses.o (_Body_setVTable)
build\libvuengine.a(Box.o)    build\libvuengine.a(InverseBox.o) (_Box_getBaseClass)
build\libvuengine.a(Ball.o)   C:/vbde/samples/vuengine/capitan-sevilla/lib/compiler/setupClasses.o (_Ball_setVTable)
build\libvuengine.a(UiContainer.o)
                              C:/vbde/samples/vuengine/capitan-sevilla/lib/compiler/setupClasses.o (_UiContainer_setVTable)
build\libvuengine.a(SpatialObject.o)
                              build/tools/./source/components/CameraTriggerEntity.o (_SpatialObject_isMoving)
build\libvuengine.a(Stage.o)  C:/vbde/samples/vuengine/capitan-sevilla/lib/compiler/setupClasses.o (_Stage_setVTable)
build\libvuengine.a(EntityFactory.o)
                              C:/vbde/samples/vuengine/capitan-sevilla/lib/compiler/setupClasses.o (_EntityFactory_setVTable)
build\libvuengine.a(ReflectiveEntity.o)
                              C:/vbde/samples/vuengine/capitan-sevilla/lib/compiler/setupClasses.o (_ReflectiveEntity_setVTable)
build\libvuengine.a(Entity.o)
                              build/tools/./source/components/CameraTriggerEntity.o (_Entity_getBaseClass)
build\libvuengine.a(Actor.o)  build/tools/./source/objects/actors/Hero/Hero.o (_Actor_getBaseClass)
build\libvuengine.a(ManagedEntity.o)
                              C:/vbde/samples/vuengine/capitan-sevilla/lib/compiler/setupClasses.o (_ManagedEntity_setVTable)
build\libvuengine.a(Container.o)
                              build\libvuengine.a(UiContainer.o) (_Container_getBaseClass)
build\libvuengine.a(AnimatedEntity.o)
                              build/tools/./source/objects/elements/Door/Door.o (_AnimatedEntity_getBaseClass)
build\libvuengine.a(ParticleRemover.o)
                              C:/vbde/samples/vuengine/capitan-sevilla/lib/compiler/setupClasses.o (_ParticleRemover_setVTable)
build\libvuengine.a(SolidParticle.o)
                              C:/vbde/samples/vuengine/capitan-sevilla/lib/compiler/setupClasses.o (_SolidParticle_setVTable)
build\libvuengine.a(Particle.o)
                              build\libvuengine.a(SolidParticle.o) (_Particle_getBaseClass)
build\libvuengine.a(ParticleBody.o)
                              C:/vbde/samples/vuengine/capitan-sevilla/lib/compiler/setupClasses.o (_ParticleBody_setVTable)
build\libvuengine.a(ParticleSystem.o)
                              C:/vbde/samples/vuengine/capitan-sevilla/lib/compiler/setupClasses.o (_ParticleSystem_setVTable)
build\libvuengine.a(DebugState.o)
                              C:/vbde/samples/vuengine/capitan-sevilla/lib/compiler/setupClasses.o (_DebugState_setVTable)
build\libvuengine.a(StageEditorState.o)
                              C:/vbde/samples/vuengine/capitan-sevilla/lib/compiler/setupClasses.o (_StageEditorState_setVTable)
build\libvuengine.a(GameState.o)
                              build/tools/./source/states/AutoPauseScreenState/AutoPauseScreenState.o (_GameState_getBaseClass)
build\libvuengine.a(AnimationInspectorState.o)
                              C:/vbde/samples/vuengine/capitan-sevilla/lib/compiler/setupClasses.o (_AnimationInspectorState_setVTable)
build\libvuengine.a(StageEditor.o)
                              C:/vbde/samples/vuengine/capitan-sevilla/lib/compiler/setupClasses.o (_StageEditor_setVTable)
build\libvuengine.a(OptionsSelector.o)
                              C:/vbde/samples/vuengine/capitan-sevilla/lib/compiler/setupClasses.o (_OptionsSelector_setVTable)
build\libvuengine.a(Debug.o)  C:/vbde/samples/vuengine/capitan-sevilla/lib/compiler/setupClasses.o (_Debug_setVTable)
build\libvuengine.a(AnimationInspector.o)
                              C:/vbde/samples/vuengine/capitan-sevilla/lib/compiler/setupClasses.o (_AnimationInspector_setVTable)
build\libvuengine.a(ColumnTable.o)
                              build\libvuengine.a(VIPManager.o) (_DEFAULT_BRIGHTNESS_REPEAT)
build\libvuengine.a(VUEngineFontDefinition.o)
                              build\libvuengine.a(Printing.o) (_VUENGINE_FONT)
build\libvuengine.a(Optics.o)
                              build\libvuengine.a(BgmapSprite.o) (_Optics_calculateParallax)
build\libvuengine.a(Affine.o)
                              build\libvuengine.a(BgmapSprite.o) (_Affine_applyAll)
build\libvuengine.a(VUEngineFont.o)
                              build\libvuengine.a(VUEngineFontDefinition.o) (_VUEngineFontTiles)
c:/vbde/system/msys32/v810/v810-win32/bin/../lib/gcc/v810/4.7.4\libgcc.a(_divdi3.o)
                              build/tools/./source/components/PostProcessingEffects.o (___divdi3)
c:/vbde/system/msys32/v810/v810-win32/bin/../lib/gcc/v810/4.7.4\libgcc.a(_lt_sf.o)
                              build\libvuengine.a(Printing.o) (___ltsf2)
c:/vbde/system/msys32/v810/v810-win32/bin/../lib/gcc/v810/4.7.4\libgcc.a(_clz.o)
                              c:/vbde/system/msys32/v810/v810-win32/bin/../lib/gcc/v810/4.7.4\libgcc.a(_divdi3.o) (___clz_tab)
c:/vbde/system/msys32/v810/v810-win32/bin/../lib/gcc/v810/4.7.4\libgcc.a(_unpack_sf.o)
                              c:/vbde/system/msys32/v810/v810-win32/bin/../lib/gcc/v810/4.7.4\libgcc.a(_lt_sf.o) (___unpack_f)
c:/vbde/system/msys32/v810/v810-win32/bin/../lib/gcc/v810/4.7.4\libgcc.a(_fpcmp_parts_sf.o)
                              c:/vbde/system/msys32/v810/v810-win32/bin/../lib/gcc/v810/4.7.4\libgcc.a(_lt_sf.o) (___fpcmp_parts_f)
c:/vbde/system/msys32/v810/v810-win32/bin/../lib/gcc/v810/4.7.4/../../../../v810/lib\libc.a(lib_a-strcmp.o)
                              build\libvuengine.a(Printing.o) (_strcmp)
c:/vbde/system/msys32/v810/v810-win32/bin/../lib/gcc/v810/4.7.4/../../../../v810/lib\libc.a(lib_a-strcpy.o)
                              build\libvuengine.a(AnimationInspector.o) (_strcpy)
c:/vbde/system/msys32/v810/v810-win32/bin/../lib/gcc/v810/4.7.4/../../../../v810/lib\libc.a(lib_a-strlen.o)
                              build/tools/./source/states/PlatformerLevelState/PlatformerLevelState.o (_strlen)
c:/vbde/system/msys32/v810/v810-win32/bin/../lib/gcc/v810/4.7.4/../../../../v810/lib\libc.a(lib_a-strncmp.o)
                              build/tools/./source/components/ProgressManager.o (_strncmp)
c:/vbde/system/msys32/v810/v810-win32/bin/../lib/gcc/v810/4.7.4/../../../../v810/lib\libc.a(lib_a-strncpy.o)
                              build\libvuengine.a(Error.o) (_strncpy)
c:/vbde/system/msys32/v810/v810-win32/bin/../lib/gcc/v810/4.7.4/../../../../v810/lib\libc.a(lib_a-strnlen.o)
                              build\libvuengine.a(Error.o) (_strnlen)

Memory Configuration

Name             Origin             Length             Attributes
wram             0x05000000         0x00010000         !r
dram             0x0003a000         0x00003800         !r
sram             0x06000000         0x01000000         !r
rom              0x07000000         0x01000000         xr
*default*        0x00000000         0xffffffff

Linker script and memory map

LOAD build/tools/./source/globals.o
LOAD build/tools/./source/game.o
LOAD build/tools/./source/components/ProgressManager.o
LOAD build/tools/./source/components/AffineTransformations.o
LOAD build/tools/./source/components/PostProcessingEffects.o
LOAD build/tools/./source/components/HbiasEffects.o
LOAD build/tools/./source/components/EventManager.o
LOAD build/tools/./source/components/CustomCameraEffectManager.o
LOAD build/tools/./source/components/CameraTriggerEntity.o
LOAD build/tools/./source/components/CustomCameraMovementManager.o
LOAD build/tools/./source/components/graphics/HbiasMaskMBgmapSprite.o
LOAD build/tools/./source/components/graphics/GUISprite.o
LOAD build/tools/./source/objects/actors/Hero/Hero.o
LOAD build/tools/./source/objects/actors/Hero/states/HeroState.o
LOAD build/tools/./source/objects/actors/Hero/states/HeroMoving.o
LOAD build/tools/./source/objects/actors/Hero/states/HeroIdle.o
LOAD build/tools/./source/objects/actors/MovingEntity/MovingEntity.o
LOAD build/tools/./source/objects/elements/Collision/Collision.o
LOAD build/tools/./source/objects/elements/Collision/CollisionDefinition.o
LOAD build/tools/./source/objects/elements/Door/Door.o
LOAD build/tools/./source/objects/elements/Door/LayerSwitchDoor.o
LOAD build/tools/./source/objects/elements/Door/GoalDoor.o
LOAD build/tools/./source/objects/elements/Door/KeyDoor.o
LOAD build/tools/./source/objects/elements/Gui/Gui.o
LOAD build/tools/./source/objects/items/Collectable/Collectable.o
LOAD build/tools/./source/objects/items/Item/Item.o
LOAD build/tools/./source/states/AutoPauseScreenState/AutoPauseScreenState.o
LOAD build/tools/./source/states/LevelDoneScreenState/LevelDoneScreenState.o
LOAD build/tools/./source/states/OptionsScreenState/OptionsScreenState.o
LOAD build/tools/./source/states/PauseScreenState/PauseScreenState.o
LOAD build/tools/./source/states/PlatformerLevelState/PlatformerLevelState.o
LOAD build/tools/./source/states/SplashScreens/AdjustmentScreenState/AdjustmentScreenState.o
LOAD build/tools/./source/states/SplashScreens/AutoPauseSelectScreenState/AutoPauseSelectScreenState.o
LOAD build/tools/./source/states/SplashScreens/LangSelectScreenState/LangSelectScreenState.o
LOAD build/tools/./source/states/SplashScreens/PrecautionScreenState/PrecautionScreenState.o
LOAD build/tools/./source/states/SplashScreens/SplashScreenState/SplashScreenState.o
LOAD build/tools/./source/states/TitleScreenState/TitleScreenState.o
LOAD build/tools/./assets/data/ColumnTable.o
LOAD build/tools/./assets/fonts/Fonts.o
LOAD build/tools/./assets/images/AdjustmentScreen/Binary/AdjustmentScreenVUEngineIcon.o
LOAD build/tools/./assets/images/AdjustmentScreen/Binary/AdjustmentScreenVUEngineLogo.o
LOAD build/tools/./assets/images/AdjustmentScreen/Binary/AdjustmentScreenVUEngineBG.o
LOAD build/tools/./assets/images/AdjustmentScreen/Definition/AdjustmentScreenVUEngineBGDefinition.o
LOAD build/tools/./assets/images/AdjustmentScreen/Definition/AdjustmentScreenVUEngineIconDefinition.o
LOAD build/tools/./assets/images/AdjustmentScreen/Definition/AdjustmentScreenVUEngineLogoDefinition.o
LOAD build/tools/./assets/images/Buildings/Binary/Barberia1.o
LOAD build/tools/./assets/images/Buildings/Binary/House5Black.o
LOAD build/tools/./assets/images/Buildings/Binary/House4.o
LOAD build/tools/./assets/images/Buildings/Binary/House1Black.o
LOAD build/tools/./assets/images/Buildings/Binary/House2.o
LOAD build/tools/./assets/images/Buildings/Binary/Wall1.o
LOAD build/tools/./assets/images/Buildings/Binary/House5.o
LOAD build/tools/./assets/images/Buildings/Binary/House6Black.o
LOAD build/tools/./assets/images/Buildings/Binary/House1.o
LOAD build/tools/./assets/images/Buildings/Binary/House3.o
LOAD build/tools/./assets/images/Buildings/Binary/House3Black.o
LOAD build/tools/./assets/images/Buildings/Binary/Garage1Black.o
LOAD build/tools/./assets/images/Buildings/Binary/Barberia1Black.o
LOAD build/tools/./assets/images/Buildings/Binary/House4Black.o
LOAD build/tools/./assets/images/Buildings/Binary/Garage2.o
LOAD build/tools/./assets/images/Buildings/Binary/Playground1.o
LOAD build/tools/./assets/images/Buildings/Binary/Garage1.o
LOAD build/tools/./assets/images/Buildings/Binary/House2Black.o
LOAD build/tools/./assets/images/Buildings/Binary/House6.o
LOAD build/tools/./assets/images/Buildings/Binary/Wall1Black.o
LOAD build/tools/./assets/images/Buildings/Definition/House4Definition.o
LOAD build/tools/./assets/images/Buildings/Definition/House6Definition.o
LOAD build/tools/./assets/images/Buildings/Definition/Garage2Definition.o
LOAD build/tools/./assets/images/Buildings/Definition/Playground1Definition.o
LOAD build/tools/./assets/images/Buildings/Definition/Wall1Definition.o
LOAD build/tools/./assets/images/Buildings/Definition/House2Definition.o
LOAD build/tools/./assets/images/Buildings/Definition/Garage1Definition.o
LOAD build/tools/./assets/images/Buildings/Definition/House3Definition.o
LOAD build/tools/./assets/images/Buildings/Definition/House1Definition.o
LOAD build/tools/./assets/images/Buildings/Definition/Barberia1Definition.o
LOAD build/tools/./assets/images/Buildings/Definition/House5Definition.o
LOAD build/tools/./assets/images/CityBackground/Binary/CityBackgroundB.o
LOAD build/tools/./assets/images/CityBackground/Binary/CityBackgroundA.o
LOAD build/tools/./assets/images/CityBackground/Definition/CityBgDefinition.o
LOAD build/tools/./assets/images/CityFloor/Binary/CityFloor.o
LOAD build/tools/./assets/images/CityFloor/Definition/CityFloorDefinition.o
LOAD build/tools/./assets/images/Decoration/Binary/PlaygroundSign1.o
LOAD build/tools/./assets/images/Decoration/Binary/Bike1.o
LOAD build/tools/./assets/images/Decoration/Binary/BushBg1.o
LOAD build/tools/./assets/images/Decoration/Binary/Lantern1.o
LOAD build/tools/./assets/images/Decoration/Binary/TreeBg1.o
LOAD build/tools/./assets/images/Decoration/Binary/Motorbike1.o
LOAD build/tools/./assets/images/Decoration/Binary/CarBg1.o
LOAD build/tools/./assets/images/Decoration/Binary/Bench1.o
LOAD build/tools/./assets/images/Decoration/Binary/TrashBin1.o
LOAD build/tools/./assets/images/Decoration/Binary/PlaygroundSign1Black.o
LOAD build/tools/./assets/images/Decoration/Binary/Fence2.o
LOAD build/tools/./assets/images/Decoration/Binary/BushBg2.o
LOAD build/tools/./assets/images/Decoration/Binary/Car1.o
LOAD build/tools/./assets/images/Decoration/Binary/Clothes1.o
LOAD build/tools/./assets/images/Decoration/Binary/Container1.o
LOAD build/tools/./assets/images/Decoration/Binary/Fence1.o
LOAD build/tools/./assets/images/Decoration/Binary/Lantern1Black.o
LOAD build/tools/./assets/images/Decoration/Binary/Statue1.o
LOAD build/tools/./assets/images/Decoration/Binary/Thing1.o
LOAD build/tools/./assets/images/Decoration/Binary/Tree1.o
LOAD build/tools/./assets/images/Decoration/Definition/Thing1Definition.o
LOAD build/tools/./assets/images/Decoration/Definition/Tree1Definition.o
LOAD build/tools/./assets/images/Decoration/Definition/Clothes1Definition.o
LOAD build/tools/./assets/images/Decoration/Definition/Container1Definition.o
LOAD build/tools/./assets/images/Decoration/Definition/Statue1Definition.o
LOAD build/tools/./assets/images/Decoration/Definition/Bike1Definition.o
LOAD build/tools/./assets/images/Decoration/Definition/PlaygroundSign1Definition.o
LOAD build/tools/./assets/images/Decoration/Definition/Fence2Definition.o
LOAD build/tools/./assets/images/Decoration/Definition/BushBg1Definition.o
LOAD build/tools/./assets/images/Decoration/Definition/Fence1Definition.o
LOAD build/tools/./assets/images/Decoration/Definition/Lantern1Definition.o
LOAD build/tools/./assets/images/Decoration/Definition/TrashBin1Definition.o
LOAD build/tools/./assets/images/Decoration/Definition/BushBg2Definition.o
LOAD build/tools/./assets/images/Decoration/Definition/Bench1Definition.o
LOAD build/tools/./assets/images/Decoration/Definition/TreeBg1Definition.o
LOAD build/tools/./assets/images/Decoration/Definition/Motorbike1Definition.o
LOAD build/tools/./assets/images/Decoration/Definition/Car1Definition.o
LOAD build/tools/./assets/images/Decoration/Definition/CarBg1Definition.o
LOAD build/tools/./assets/images/Fonts/Binary/FontDefault.o
LOAD build/tools/./assets/images/Fonts/Definition/FontDefaultDefinition.o
LOAD build/tools/./assets/images/Gui/Binary/Gui.o
LOAD build/tools/./assets/images/Gui/Definition/GuiDefinition.o
LOAD build/tools/./assets/images/Hero/Binary/HeroBlack.o
LOAD build/tools/./assets/images/Hero/Binary/Hero.o
LOAD build/tools/./assets/images/Hero/Definition/HeroDefinition.o
LOAD build/tools/./assets/images/TitleScreen/Binary/TitleCapitanBlack.o
LOAD build/tools/./assets/images/TitleScreen/Binary/TitleEarth.o
LOAD build/tools/./assets/images/TitleScreen/Binary/TitleLogo.o
LOAD build/tools/./assets/images/TitleScreen/Binary/TitleCapitan.o
LOAD build/tools/./assets/images/TitleScreen/Binary/TitleSubTitle.o
LOAD build/tools/./assets/images/TitleScreen/Binary/TitleLogoBlack.o
LOAD build/tools/./assets/images/TitleScreen/Definition/TitleEarthDefinition.o
LOAD build/tools/./assets/images/TitleScreen/Definition/TitleSubTitleDefinition.o
LOAD build/tools/./assets/images/TitleScreen/Definition/TitleCapitanDefinition.o
LOAD build/tools/./assets/images/TitleScreen/Definition/TitleLogoDefinition.o
LOAD build/tools/./assets/languages/Language_DE.o
LOAD build/tools/./assets/languages/Language_ES.o
LOAD build/tools/./assets/languages/Languages.o
LOAD build/tools/./assets/languages/Language_FR.o
LOAD build/tools/./assets/languages/Language_EN.o
LOAD build/tools/./assets/levels/Level1Definition.o
LOAD build/tools/./assets/sounds/CollectDefinition.o
LOAD build/tools/./assets/sounds/BGM1Definition.o
LOAD build/tools/./assets/sounds/JumpDefinition.o
LOAD build/tools/./assets/sounds/FireDefinition.o
LOAD build/tools/./assets/sounds/BGM2Definition.o
LOAD build/tools/./assets/stages/Level1/Definition/Level1MainStageDefinition.o
LOAD build/tools/./assets/stages/Various/Definition/TitleScreenStageDefinition.o
LOAD build/tools/./assets/stages/Various/Definition/EmptyStageDefinition.o
LOAD build/tools/./assets/stages/Various/Definition/AdjustmentScreenStageDefinition.o
LOAD build/tools/./assets/stages/Various/Definition/PauseScreenStageDefinition.o
LOAD C:/vbde/samples/vuengine/capitan-sevilla/lib/compiler/setupClasses.o
LOAD c:/vbde/system/msys32/v810/v810-win32/bin/../lib/gcc/v810/4.7.4/../../../../v810/lib\libm.a
LOAD build\libvuengine.a
LOAD c:/vbde/system/msys32/v810/v810-win32/bin/../lib/gcc/v810/4.7.4\libgcc.a
START GROUP
LOAD c:/vbde/system/msys32/v810/v810-win32/bin/../lib/gcc/v810/4.7.4/../../../../v810/lib\libc.a
LOAD c:/vbde/system/msys32/v810/v810-win32/bin/../lib/gcc/v810/4.7.4\libgcc.a
END GROUP
LOAD c:/vbde/system/msys32/v810/v810-win32/bin/../lib/gcc/v810/4.7.4\libgcc.a
TARGET(elf32-v810)
                0x07000000                __text_vma = ORIGIN (rom)
                0x05000000                __data_vma = ORIGIN (wram)
                0x06000000                __sram_vma = ORIGIN (sram)
                0x0003a000                __dram_vma = ORIGIN (dram)
                0x0500ffc0                __stack = ((ORIGIN (wram) + 0x10000) - 0x40)

.text           0x07000000    0x5523c
                0x07000000                PROVIDE (__tp, .)
 *(.text*)
 .text          0x07000000        0x0 build/tools/./source/globals.o
 .text          0x07000000        0x0 build/tools/./source/game.o
 .text.startup  0x07000000       0x2c build/tools/./source/game.o
                0x07000000                _main
 .text          0x0700002c      0xfec build/tools/./source/components/ProgressManager.o
                0x0700002c                _ProgressManager_getBaseClass
                0x07000038                _ProgressManager_getClassName
                0x07000080                _ProgressManager_destructor
                0x070001c4                _ProgressManager_setVTable
                0x07000584                _ProgressManager_getObjectSize
                0x0700058c                _ProgressManager_checkVTable
                0x070007a8                _ProgressManager_getInstance
                0x070007d0                _ProgressManager_resetHeroState
                0x070007dc                _ProgressManager_resetCurrentLevelProgress
                0x07000810                _ProgressManager_verifySaveStamp
                0x07000860                _ProgressManager_computeChecksum
                0x070008c4                _ProgressManager_writeChecksum
                0x0700093c                _ProgressManager_verifyChecksum
                0x070009bc                _ProgressManager_clearProgress
                0x070009e4                _ProgressManager_hasProgress
                0x07000a20                _ProgressManager_setCheckPointData
                0x07000a4c                _ProgressManager_loadCheckPointData
                0x07000a78                _ProgressManager_getCurrentLevelNumberOfCollectedCoins
                0x07000aa4                _ProgressManager_getCurrentLevelBestTime
                0x07000aac                _ProgressManager_getTotalNumberOfCollectedCoins
                0x07000aec                _ProgressManager_getLanguage
                0x07000b28                _ProgressManager_setLanguage
                0x07000bc4                _ProgressManager_getAutomaticPauseStatus
                0x07000c00                _ProgressManager_setAutomaticPauseStatus
                0x07000ca0                _ProgressManager_getCoinStatus
                0x07000ccc                _ProgressManager_setCoinStatus
                0x07000d10                _ProgressManager_getItemStatus
                0x07000d34                _ProgressManager_setItemStatus
                0x07000d6c                _ProgressManager_loadLevelStatus
                0x07000e0c                _ProgressManager_persistLevelStatus
                0x07000ff8                _ProgressManager_getHeroCurrentEnergy
                0x07001000                _ProgressManager_getHeroCurrentPowerUp
                0x07001008                _ProgressManager_heroHasKey
                0x07001010                _ProgressManager_getCurrentLevelTime
 .text          0x07001018        0x0 build/tools/./source/components/AffineTransformations.o
 .text          0x07001018     0x2030 build/tools/./source/components/PostProcessingEffects.o
                0x07001018                _PostProcessingEffects_waterStream
                0x070012f8                _PostProcessingEffects_calculateRainPrecipitation
                0x070014e0                _PostProcessingEffects_rain
                0x070016c0                _PostProcessingEffects_waterFall
                0x070017f0                _PostProcessingEffects_waterFall20x100
                0x07001940                _PostProcessingEffects_applyMask
                0x070019f4                _PostProcessingEffects_ellipticalWindow
                0x07001cd4                _PostProcessingEffects_lantern
                0x07001e88                _PostProcessingEffects_wobble
                0x070020b8                _PostProcessingEffects_tiltScreen
                0x0700224c                _PostProcessingEffects_dwarfPlanet
                0x0700263c                _PostProcessingEffects_lightingTest
                0x07002b9c                _PostProcessingEffects_writeToFrameBuffer
                0x07002bc0                _PostProcessingEffects_drawRhombus
                0x07002d6c                _PostProcessingEffects_rhombusEmitter
                0x07002e68                _PostProcessingEffects_dummy
 .text          0x07003048       0xc0 build/tools/./source/components/HbiasEffects.o
                0x07003048                _HbiasEffects_wave
 .text          0x07003108      0x330 build/tools/./source/components/EventManager.o
                0x07003108                _EventManager_getBaseClass
                0x07003114                _EventManager_getClassName
                0x07003120                _EventManager_destructor
                0x0700313c                _EventManager_setVTable
                0x070031f0                _EventManager_getObjectSize
                0x070031f4                _EventManager_checkVTable
                0x07003410                _EventManager_getInstance
 .text          0x07003438      0x6b4 build/tools/./source/components/CustomCameraEffectManager.o
                0x07003438                _CustomCameraEffectManager_getBaseClass
                0x07003444                _CustomCameraEffectManager_getClassName
                0x07003450                _CustomCameraEffectManager_handleMessage
                0x07003558                _CustomCameraEffectManager_destructor
                0x07003574                _CustomCameraEffectManager_setVTable
                0x0700362c                _CustomCameraEffectManager_startEffect
                0x0700375c                _CustomCameraEffectManager_stopEffect
                0x070037cc                _CustomCameraEffectManager_getObjectSize
                0x070037d4                _CustomCameraEffectManager_checkVTable
                0x07003a90                _CustomCameraEffectManager_getInstance
                0x07003ab8                _CustomCameraEffectManager_FXShakeStop
                0x07003ac0                _CustomCameraEffectManager_FXScreenPulsateStop
 .text          0x07003aec      0x5b0 build/tools/./source/components/CameraTriggerEntity.o
                0x07003aec                _CameraTriggerEntity_getBaseClass
                0x07003af8                _CameraTriggerEntity_getClassName
                0x07003b04                _CameraTriggerEntity_transform
                0x07003b6c                _CameraTriggerEntity_destructor
                0x07003b98                _CameraTriggerEntity_setVTable
                0x07003e4c                _CameraTriggerEntity_getObjectSize
                0x07003e54                _CameraTriggerEntity_checkVTable
                0x07003f38                _CameraTriggerEntity_new
                0x07003fc4                _CameraTriggerEntity_constructor
                0x07004000                _CameraTriggerEntity_setOverridePositionFlag
                0x07004094                _CameraTriggerEntity_getOverridePositionFlag
 .text          0x0700409c      0x88c build/tools/./source/components/CustomCameraMovementManager.o
                0x0700409c                _CustomCameraMovementManager_getBaseClass
                0x070040a8                _CustomCameraMovementManager_getClassName
                0x070040b4                _CustomCameraMovementManager_focus
                0x0700447c                _CustomCameraMovementManager_destructor
                0x07004498                _CustomCameraMovementManager_setVTable
                0x07004604                _CustomCameraMovementManager_getObjectSize
                0x0700460c                _CustomCameraMovementManager_checkVTable
                0x07004878                _CustomCameraMovementManager_getInstance
                0x070048a0                _CustomCameraMovementManager_setPositionFlag
                0x070048a8                _CustomCameraMovementManager_getPositionFlag
                0x070048b0                _CustomCameraMovementManager_enable
                0x070048bc                _CustomCameraMovementManager_disable
                0x070048d8                _CustomCameraMovementManager_enableFocusEasing
                0x070048ec                _CustomCameraMovementManager_disableFocusEasing
                0x07004900                _CustomCameraMovementManager_alertWhenTargetFocused
                0x0700491c                _CustomCameraMovementManager_dontAlertWhenTargetFocused
 .text          0x07004928      0x79c build/tools/./source/components/graphics/HbiasMaskMBgmapSprite.o
                0x07004928                _HbiasMaskMBgmapSprite_getBaseClass
                0x07004934                _HbiasMaskMBgmapSprite_getClassName
                0x07004a20                _HbiasMaskMBgmapSprite_position
                0x07004a50                _HbiasMaskMBgmapSprite_destructor
                0x07004a6c                _HbiasMaskMBgmapSprite_setVTable
                0x07004bdc                _HbiasMaskMBgmapSprite_render
                0x07004e3c                _HbiasMaskMBgmapSprite_getObjectSize
                0x07004e44                _HbiasMaskMBgmapSprite_checkVTable
                0x07004f28                _HbiasMaskMBgmapSprite_new
                0x07004f94                _HbiasMaskMBgmapSprite_constructor
                0x07004fd8                _HbiasMaskMBgmapSprite_wave
 .text          0x070050c4      0x3b4 build/tools/./source/components/graphics/GUISprite.o
                0x070050c4                _GUISprite_getBaseClass
                0x070050d0                _GUISprite_getClassName
                0x070050dc                _GUISprite_destructor
                0x070050f0                _GUISprite_setVTable
                0x07005260                _GUISprite_render
                0x07005334                _GUISprite_getObjectSize
                0x0700533c                _GUISprite_checkVTable
                0x07005420                _GUISprite_new
 .text          0x07005478     0x2388 build/tools/./source/objects/actors/Hero/Hero.o
                0x07005478                _Hero_getBaseClass
                0x07005484                _Hero_getClassName
                0x07005490                _Hero_getAxisForFlipping
                0x07005494                _Hero_isAffectedByRelativity
                0x07005498                _Hero_getAxesForShapeSyncWithDirection
                0x0700549c                _Hero_exitCollision
                0x0700553c                _Hero_syncRotationWithBody
                0x070055c4                _Hero_suspend
                0x070055f8                _Hero_getFrictionOnCollision
                0x07005628                _Hero_destructor
                0x07005740                _Hero_setVTable
                0x07005a30                _Hero_handlePropagatedMessage
                0x07005ad4                _Hero_resume
                0x07005b90                _Hero_ready
                0x07005c5c                _Hero_handleMessage
                0x07005ec0                _Hero_takeHitFrom
                0x07006154                _Hero_updateCollision
                0x070061d8                _Hero_getObjectSize
                0x070061e0                _Hero_checkVTable
                0x070062c4                _Hero_getInstance
                0x070062d0                _Hero_setInstance
                0x070062dc                _Hero_new
                0x070063d8                _Hero_constructor
                0x07006484                _Hero_locateOverNextFloor
                0x07006488                _Hero_jump
                0x070065c0                _Hero_addForce
                0x07006770                _Hero_startedMovingOnAxis
                0x07006868                _Hero_stopMovingOnAxis
                0x07006a24                _Hero_stopAddingForce
                0x07006ad4                _Hero_enterCollision
                0x07006f70                _Hero_checkDirection
                0x07007100                _Hero_lockCameraTriggerMovement
                0x070071a8                _Hero_flash
                0x070072a8                _Hero_toggleFlashPalette
                0x0700733c                _Hero_resetPalette
                0x070073ac                _Hero_getOverlappedDoor
                0x070073b4                _Hero_enterDoor
                0x07007444                _Hero_showHint
                0x07007448                _Hero_hideHint
                0x0700744c                _Hero_die
                0x0700747c                _Hero_hasKey
                0x07007484                _Hero_collectPowerUp
                0x07007508                _Hero_losePowerUp
                0x07007574                _Hero_updateSprite
                0x070075cc                _Hero_getPowerUp
                0x070075d4                _Hero_getEnergy
                0x070075dc                _Hero_setInvincible
                0x070075e4                _Hero_isInvincible
                0x070075ec                _Hero_capVelocity
                0x07007684                _Hero_getOutOfDoor
                0x07007714                _Hero_isBelow
                0x070077e0                _Hero_onPowerUpTransitionComplete
 .text          0x07007800      0x5a4 build/tools/./source/objects/actors/Hero/states/HeroState.o
                0x07007800                _HeroState_getBaseClass
                0x0700780c                _HeroState_getClassName
                0x07007818                _HeroState_onKeyHold
                0x0700781c                _HeroState_destructor
                0x07007830                _HeroState_setVTable
                0x07007934                _HeroState_getObjectSize
                0x07007938                _HeroState_checkVTable
                0x07007d90                _HeroState_constructor
 .text          0x07007da4      0x89c build/tools/./source/objects/actors/Hero/states/HeroMoving.o
                0x07007da4                _HeroMoving_getBaseClass
                0x07007db0                _HeroMoving_getClassName
                0x07007dbc                _HeroMoving_onKeyReleased
                0x07007ddc                _HeroMoving_enter
                0x07007e18                _HeroMoving_destructor
                0x07007e50                _HeroMoving_setVTable
                0x07007f78                _HeroMoving_onKeyPressed
                0x0700804c                _HeroMoving_processMessage
                0x070080cc                _HeroMoving_execute
                0x07008100                _HeroMoving_getObjectSize
                0x07008104                _HeroMoving_checkVTable
                0x0700855c                _HeroMoving_constructor
                0x07008618                _HeroMoving_getInstance
 .text          0x07008640      0x968 build/tools/./source/objects/actors/Hero/states/HeroIdle.o
                0x07008640                _HeroIdle_getBaseClass
                0x0700864c                _HeroIdle_getClassName
                0x07008658                _HeroIdle_onKeyReleased
                0x0700865c                _HeroIdle_onKeyHold
                0x0700870c                _HeroIdle_onKeyPressed
                0x0700883c                _HeroIdle_exit
                0x07008864                _HeroIdle_enter
                0x070088b8                _HeroIdle_destructor
                0x070088d4                _HeroIdle_setVTable
                0x070089fc                _HeroIdle_processMessage
                0x07008a8c                _HeroIdle_getObjectSize
                0x07008a90                _HeroIdle_checkVTable
                0x07008f80                _HeroIdle_getInstance
 .text          0x07008fa8      0x838 build/tools/./source/objects/actors/MovingEntity/MovingEntity.o
                0x07008fa8                _MovingEntity_getBaseClass
                0x07008fb4                _MovingEntity_getClassName
                0x07008fc0                _MovingEntity_setDefinition
                0x07008fe4                _MovingEntity_getAxesForShapeSyncWithDirection
                0x07008ff0                _MovingEntity_destructor
                0x07009030                _MovingEntity_setVTable
                0x07009320                _MovingEntity_getObjectSize
                0x07009328                _MovingEntity_checkVTable
                0x0700940c                _MovingEntity_new
                0x070094cc                _MovingEntity_constructor
                0x07009548                _MovingEntity_takeHit
                0x0700954c                _MovingEntity_checkDisplacement
                0x07009604                _MovingEntity_startMovement
                0x070096bc                _MovingEntity_handleMessage
                0x07009788                _MovingEntity_ready
 .text          0x070097e0      0x5cc build/tools/./source/objects/elements/Collision/Collision.o
                0x070097e0                _Collision_getBaseClass
                0x070097ec                _Collision_getClassName
                0x070097f8                _Collision_setExtraInfo
                0x07009824                _Collision_destructor
                0x07009838                _Collision_setVTable
                0x07009aec                _Collision_initialTransform
                0x07009c20                _Collision_getObjectSize
                0x07009c28                _Collision_checkVTable
                0x07009d0c                _Collision_new
                0x07009d88                _Collision_constructor
 .text          0x07009dac        0x0 build/tools/./source/objects/elements/Collision/CollisionDefinition.o
 .text          0x07009dac      0x60c build/tools/./source/objects/elements/Door/Door.o
                0x07009dac                _Door_getBaseClass
                0x07009db8                _Door_getClassName
                0x07009dc4                _Door_setExtraInfo
                0x07009dcc                _Door_hasDestination
                0x07009dd8                _Door_setOverlapping
                0x07009ddc                _Door_unsetOverlapping
                0x07009de0                _Door_canEnter
                0x07009e00                _Door_getHintType
                0x07009e04                _Door_ready
                0x07009e70                _Door_destructor
                0x07009e84                _Door_setVTable
                0x0700a174                _Door_handleMessage
                0x0700a1d0                _Door_getObjectSize
                0x0700a1d8                _Door_checkVTable
                0x0700a2bc                _Door_new
                0x0700a340                _Door_constructor
                0x0700a370                _Door_getExtraInfo
                0x0700a378                _Door_onOverlapping
 .text          0x0700a3b8      0x570 build/tools/./source/objects/elements/Door/LayerSwitchDoor.o
                0x0700a3b8                _LayerSwitchDoor_getBaseClass
                0x0700a3c4                _LayerSwitchDoor_getClassName
                0x0700a3d0                _LayerSwitchDoor_destructor
                0x0700a3e4                _LayerSwitchDoor_setVTable
                0x0700a6d4                _LayerSwitchDoor_handleMessage
                0x0700a79c                _LayerSwitchDoor_getObjectSize
                0x0700a7a4                _LayerSwitchDoor_checkVTable
                0x0700a888                _LayerSwitchDoor_new
                0x0700a904                _LayerSwitchDoor_constructor
 .text          0x0700a928      0x5b8 build/tools/./source/objects/elements/Door/GoalDoor.o
                0x0700a928                _GoalDoor_getBaseClass
                0x0700a934                _GoalDoor_getClassName
                0x0700a940                _GoalDoor_hasDestination
                0x0700a944                _GoalDoor_canEnter
                0x0700a980                _GoalDoor_ready
                0x0700a9bc                _GoalDoor_destructor
                0x0700a9d0                _GoalDoor_setVTable
                0x0700acc0                _GoalDoor_handleMessage
                0x0700ad54                _GoalDoor_getObjectSize
                0x0700ad5c                _GoalDoor_checkVTable
                0x0700ae40                _GoalDoor_new
                0x0700aebc                _GoalDoor_constructor
 .text          0x0700aee0      0x5ac build/tools/./source/objects/elements/Door/KeyDoor.o
                0x0700aee0                _KeyDoor_getBaseClass
                0x0700aeec                _KeyDoor_getClassName
                0x0700aef8                _KeyDoor_hasDestination
                0x0700aefc                _KeyDoor_getHintType
                0x0700af18                _KeyDoor_canEnter
                0x0700af30                _KeyDoor_unsetOverlapping
                0x0700af78                _KeyDoor_setOverlapping
                0x0700afc0                _KeyDoor_ready
                0x0700affc                _KeyDoor_destructor
                0x0700b010                _KeyDoor_setVTable
                0x0700b300                _KeyDoor_getObjectSize
                0x0700b308                _KeyDoor_checkVTable
                0x0700b3ec                _KeyDoor_new
                0x0700b468                _KeyDoor_constructor
 .text          0x0700b48c      0xd34 build/tools/./source/objects/elements/Gui/Gui.o
                0x0700b48c                _Gui_getBaseClass
                0x0700b498                _Gui_getClassName
                0x0700b4a4                _Gui_ready
                0x0700b4c8                _Gui_destructor
                0x0700b564                _Gui_setVTable
                0x0700ba38                _Gui_getObjectSize
                0x0700ba40                _Gui_checkVTable
                0x0700bb24                _Gui_new
                0x0700bc20                _Gui_constructor
                0x0700bcc8                _Gui_printClock
                0x0700bcf8                _Gui_printBestTime
                0x0700bd78                _Gui_printCoins
                0x0700be00                _Gui_printEnergy
                0x0700be8c                _Gui_printKey
                0x0700bee0                _Gui_printLevel
                0x0700bf24                _Gui_updateSprite
                0x0700bf7c                _Gui_printAll
                0x0700c198                _Gui_handlePropagatedMessage
 .text          0x0700c1c0      0x4f0 build/tools/./source/objects/items/Collectable/Collectable.o
                0x0700c1c0                _Collectable_getBaseClass
                0x0700c1cc                _Collectable_getClassName
                0x0700c1d8                _Collectable_collect
                0x0700c1dc                _Collectable_destructor
                0x0700c1f0                _Collectable_setVTable
                0x0700c4b0                _Collectable_handleMessage
                0x0700c524                _Collectable_getObjectSize
                0x0700c52c                _Collectable_checkVTable
                0x0700c610                _Collectable_new
                0x0700c68c                _Collectable_constructor
 .text          0x0700c6b0      0x4a4 build/tools/./source/objects/items/Item/Item.o
                0x0700c6b0                _Item_getBaseClass
                0x0700c6bc                _Item_getClassName
                0x0700c6c8                _Item_collect
                0x0700c6f4                _Item_destructor
                0x0700c708                _Item_setVTable
                0x0700c9c8                _Item_getObjectSize
                0x0700c9d0                _Item_checkVTable
                0x0700cab4                _Item_new
                0x0700cb30                _Item_constructor
 .text          0x0700cb54      0x8a0 build/tools/./source/states/AutoPauseScreenState/AutoPauseScreenState.o
                0x0700cb54                _AutoPauseScreenState_getBaseClass
                0x0700cb60                _AutoPauseScreenState_getClassName
                0x0700cc04                _AutoPauseScreenState_setVTable
                0x0700ce78                _AutoPauseScreenState_processUserInput
                0x0700cef0                _AutoPauseScreenState_getObjectSize
                0x0700cef8                _AutoPauseScreenState_checkVTable
                0x0700d394                _AutoPauseScreenState_new
                0x0700d3d0                _AutoPauseScreenState_getInstance
 .text          0x0700d3f4      0x958 build/tools/./source/states/LevelDoneScreenState/LevelDoneScreenState.o
                0x0700d3f4                _LevelDoneScreenState_getBaseClass
                0x0700d400                _LevelDoneScreenState_getClassName
                0x0700d484                _LevelDoneScreenState_setVTable
                0x0700d5d0                _LevelDoneScreenState_processUserInput
                0x0700d848                _LevelDoneScreenState_getObjectSize
                0x0700d850                _LevelDoneScreenState_checkVTable
                0x0700dcec                _LevelDoneScreenState_new
                0x0700dd28                _LevelDoneScreenState_getInstance
 .text          0x0700dd4c      0xa88 build/tools/./source/states/OptionsScreenState/OptionsScreenState.o
                0x0700dd4c                _OptionsScreenState_getBaseClass
                0x0700dd58                _OptionsScreenState_getClassName
                0x0700dd84                _OptionsScreenState_processUserInput
                0x0700deb4                _OptionsScreenState_setVTable
                0x0700e304                _OptionsScreenState_getObjectSize
                0x0700e30c                _OptionsScreenState_checkVTable
                0x0700e7a4                _OptionsScreenState_getInstance
                0x0700e7cc                _OptionsScreenState_setNextState
 .text          0x0700e7d4      0xb98 build/tools/./source/states/PauseScreenState/PauseScreenState.o
                0x0700e7d4                _PauseScreenState_getBaseClass
                0x0700e7e0                _PauseScreenState_getClassName
                0x0700e80c                _PauseScreenState_processUserInput
                0x0700ea9c                _PauseScreenState_setVTable
                0x0700eea4                _PauseScreenState_getObjectSize
                0x0700eeac                _PauseScreenState_checkVTable
                0x0700f344                _PauseScreenState_getInstance
 .text          0x0700f36c     0x132c build/tools/./source/states/PlatformerLevelState/PlatformerLevelState.o
                0x0700f36c                _PlatformerLevelState_getBaseClass
                0x0700f378                _PlatformerLevelState_getClassName
                0x0700f3b0                _PlatformerLevelState_onHeroDied
                0x0700f454                _PlatformerLevelState_onScreenFocused
                0x0700f498                _PlatformerLevelState_processUserInput
                0x0700f548                _PlatformerLevelState_setVTable
                0x0700fffc                _PlatformerLevelState_getObjectSize
                0x07010004                _PlatformerLevelState_checkVTable
                0x0701049c                _PlatformerLevelState_getInstance
                0x070104c4                _PlatformerLevelState_setPrintingLayerCoordinates
                0x070104f4                _PlatformerLevelState_getUserInput
                0x07010518                _PlatformerLevelState_getClock
                0x07010520                _PlatformerLevelState_getCurrentLevelDefinition
                0x07010528                _PlatformerLevelState_startLevel
                0x0701056c                _PlatformerLevelState_enterStage
                0x07010600                _PlatformerLevelState_startStage
                0x07010674                _PlatformerLevelState_isStartingLevel
                0x07010688                _PlatformerLevelState_setModeToPaused
                0x07010690                _PlatformerLevelState_setModeToPlaying
 .text          0x07010698      0x9e0 build/tools/./source/states/SplashScreens/AdjustmentScreenState/AdjustmentScreenState.o
                0x07010698                _AdjustmentScreenState_getBaseClass
                0x070106a4                _AdjustmentScreenState_getClassName
                0x070106b0                _AdjustmentScreenState_enter
                0x07010728                _AdjustmentScreenState_setVTable
                0x0701087c                _AdjustmentScreenState_rhombusEmitterPostProcessingEffect
                0x07010acc                _AdjustmentScreenState_getObjectSize
                0x07010ad4                _AdjustmentScreenState_checkVTable
                0x07011018                _AdjustmentScreenState_new
                0x07011054                _AdjustmentScreenState_getInstance
 .text          0x07011078      0xbe8 build/tools/./source/states/SplashScreens/AutoPauseSelectScreenState/AutoPauseSelectScreenState.o
                0x07011078                _AutoPauseSelectScreenState_getBaseClass
                0x07011084                _AutoPauseSelectScreenState_getClassName
                0x070110cc                _AutoPauseSelectScreenState_setVTable
                0x070116b4                _AutoPauseSelectScreenState_getObjectSize
                0x070116bc                _AutoPauseSelectScreenState_checkVTable
                0x07011c00                _AutoPauseSelectScreenState_new
                0x07011c3c                _AutoPauseSelectScreenState_getInstance
 .text          0x07011c60      0x990 build/tools/./source/states/SplashScreens/LangSelectScreenState/LangSelectScreenState.o
                0x07011c60                _LangSelectScreenState_getBaseClass
                0x07011c6c                _LangSelectScreenState_getClassName
                0x07011d8c                _LangSelectScreenState_setVTable
                0x07012044                _LangSelectScreenState_getObjectSize
                0x0701204c                _LangSelectScreenState_checkVTable
                0x07012590                _LangSelectScreenState_new
                0x070125cc                _LangSelectScreenState_getInstance
 .text          0x070125f0      0x910 build/tools/./source/states/SplashScreens/PrecautionScreenState/PrecautionScreenState.o
                0x070125f0                _PrecautionScreenState_getBaseClass
                0x070125fc                _PrecautionScreenState_getClassName
                0x0701263c                _PrecautionScreenState_setVTable
                0x07012954                _PrecautionScreenState_getObjectSize
                0x0701295c                _PrecautionScreenState_checkVTable
                0x07012ea0                _PrecautionScreenState_new
                0x07012edc                _PrecautionScreenState_getInstance
 .text          0x07012f00      0x8f8 build/tools/./source/states/SplashScreens/SplashScreenState/SplashScreenState.o
                0x07012f00                _SplashScreenState_getBaseClass
                0x07012f0c                _SplashScreenState_getClassName
                0x07012f18                _SplashScreenState_exit
                0x07012f54                _SplashScreenState_processUserInput
                0x07012f80                _SplashScreenState_print
                0x07012fc4                _SplashScreenState_enter
                0x07013030                _SplashScreenState_destructor
                0x07013044                _SplashScreenState_setVTable
                0x0701317c                _SplashScreenState_processMessage
                0x070131d0                _SplashScreenState_resume
                0x07013250                _SplashScreenState_processInput
                0x070132b8                _SplashScreenState_getObjectSize
                0x070132c0                _SplashScreenState_checkVTable
                0x07013768                _SplashScreenState_constructor
                0x07013788                _SplashScreenState_setNextState
                0x07013790                _SplashScreenState_loadNextState
 .text          0x070137f8      0x87c build/tools/./source/states/TitleScreenState/TitleScreenState.o
                0x070137f8                _TitleScreenState_getBaseClass
                0x07013804                _TitleScreenState_getClassName
                0x07013858                _TitleScreenState_setVTable
                0x07013aa4                _TitleScreenState_processUserInput
                0x07013bac                _TitleScreenState_getObjectSize
                0x07013bb4                _TitleScreenState_checkVTable
                0x0701404c                _TitleScreenState_getInstance
 .text          0x07014074        0x0 build/tools/./assets/data/ColumnTable.o
 .text          0x07014074        0x0 build/tools/./assets/fonts/Fonts.o
 .text          0x07014074        0x0 build/tools/./assets/images/AdjustmentScreen/Binary/AdjustmentScreenVUEngineIcon.o
 .text          0x07014074        0x0 build/tools/./assets/images/AdjustmentScreen/Binary/AdjustmentScreenVUEngineLogo.o
 .text          0x07014074        0x0 build/tools/./assets/images/AdjustmentScreen/Binary/AdjustmentScreenVUEngineBG.o
 .text          0x07014074        0x0 build/tools/./assets/images/AdjustmentScreen/Definition/AdjustmentScreenVUEngineBGDefinition.o
 .text          0x07014074        0x0 build/tools/./assets/images/AdjustmentScreen/Definition/AdjustmentScreenVUEngineIconDefinition.o
 .text          0x07014074        0x0 build/tools/./assets/images/AdjustmentScreen/Definition/AdjustmentScreenVUEngineLogoDefinition.o
 .text          0x07014074        0x0 build/tools/./assets/images/Buildings/Binary/Barberia1.o
 .text          0x07014074        0x0 build/tools/./assets/images/Buildings/Binary/House5Black.o
 .text          0x07014074        0x0 build/tools/./assets/images/Buildings/Binary/House4.o
 .text          0x07014074        0x0 build/tools/./assets/images/Buildings/Binary/House1Black.o
 .text          0x07014074        0x0 build/tools/./assets/images/Buildings/Binary/House2.o
 .text          0x07014074        0x0 build/tools/./assets/images/Buildings/Binary/Wall1.o
 .text          0x07014074        0x0 build/tools/./assets/images/Buildings/Binary/House5.o
 .text          0x07014074        0x0 build/tools/./assets/images/Buildings/Binary/House6Black.o
 .text          0x07014074        0x0 build/tools/./assets/images/Buildings/Binary/House1.o
 .text          0x07014074        0x0 build/tools/./assets/images/Buildings/Binary/House3.o
 .text          0x07014074        0x0 build/tools/./assets/images/Buildings/Binary/House3Black.o
 .text          0x07014074        0x0 build/tools/./assets/images/Buildings/Binary/Garage1Black.o
 .text          0x07014074        0x0 build/tools/./assets/images/Buildings/Binary/Barberia1Black.o
 .text          0x07014074        0x0 build/tools/./assets/images/Buildings/Binary/House4Black.o
 .text          0x07014074        0x0 build/tools/./assets/images/Buildings/Binary/Garage2.o
 .text          0x07014074        0x0 build/tools/./assets/images/Buildings/Binary/Playground1.o
 .text          0x07014074        0x0 build/tools/./assets/images/Buildings/Binary/Garage1.o
 .text          0x07014074        0x0 build/tools/./assets/images/Buildings/Binary/House2Black.o
 .text          0x07014074        0x0 build/tools/./assets/images/Buildings/Binary/House6.o
 .text          0x07014074        0x0 build/tools/./assets/images/Buildings/Binary/Wall1Black.o
 .text          0x07014074        0x0 build/tools/./assets/images/Buildings/Definition/House4Definition.o
 .text          0x07014074        0x0 build/tools/./assets/images/Buildings/Definition/House6Definition.o
 .text          0x07014074        0x0 build/tools/./assets/images/Buildings/Definition/Garage2Definition.o
 .text          0x07014074        0x0 build/tools/./assets/images/Buildings/Definition/Playground1Definition.o
 .text          0x07014074        0x0 build/tools/./assets/images/Buildings/Definition/Wall1Definition.o
 .text          0x07014074        0x0 build/tools/./assets/images/Buildings/Definition/House2Definition.o
 .text          0x07014074        0x0 build/tools/./assets/images/Buildings/Definition/Garage1Definition.o
 .text          0x07014074        0x0 build/tools/./assets/images/Buildings/Definition/House3Definition.o
 .text          0x07014074        0x0 build/tools/./assets/images/Buildings/Definition/House1Definition.o
 .text          0x07014074        0x0 build/tools/./assets/images/Buildings/Definition/Barberia1Definition.o
 .text          0x07014074        0x0 build/tools/./assets/images/Buildings/Definition/House5Definition.o
 .text          0x07014074        0x0 build/tools/./assets/images/CityBackground/Binary/CityBackgroundB.o
 .text          0x07014074        0x0 build/tools/./assets/images/CityBackground/Binary/CityBackgroundA.o
 .text          0x07014074        0x0 build/tools/./assets/images/CityBackground/Definition/CityBgDefinition.o
 .text          0x07014074        0x0 build/tools/./assets/images/CityFloor/Binary/CityFloor.o
 .text          0x07014074        0x0 build/tools/./assets/images/CityFloor/Definition/CityFloorDefinition.o
 .text          0x07014074        0x0 build/tools/./assets/images/Decoration/Binary/PlaygroundSign1.o
 .text          0x07014074        0x0 build/tools/./assets/images/Decoration/Binary/Bike1.o
 .text          0x07014074        0x0 build/tools/./assets/images/Decoration/Binary/BushBg1.o
 .text          0x07014074        0x0 build/tools/./assets/images/Decoration/Binary/Lantern1.o
 .text          0x07014074        0x0 build/tools/./assets/images/Decoration/Binary/TreeBg1.o
 .text          0x07014074        0x0 build/tools/./assets/images/Decoration/Binary/Motorbike1.o
 .text          0x07014074        0x0 build/tools/./assets/images/Decoration/Binary/CarBg1.o
 .text          0x07014074        0x0 build/tools/./assets/images/Decoration/Binary/Bench1.o
 .text          0x07014074        0x0 build/tools/./assets/images/Decoration/Binary/TrashBin1.o
 .text          0x07014074        0x0 build/tools/./assets/images/Decoration/Binary/PlaygroundSign1Black.o
 .text          0x07014074        0x0 build/tools/./assets/images/Decoration/Binary/Fence2.o
 .text          0x07014074        0x0 build/tools/./assets/images/Decoration/Binary/BushBg2.o
 .text          0x07014074        0x0 build/tools/./assets/images/Decoration/Binary/Car1.o
 .text          0x07014074        0x0 build/tools/./assets/images/Decoration/Binary/Clothes1.o
 .text          0x07014074        0x0 build/tools/./assets/images/Decoration/Binary/Container1.o
 .text          0x07014074        0x0 build/tools/./assets/images/Decoration/Binary/Fence1.o
 .text          0x07014074        0x0 build/tools/./assets/images/Decoration/Binary/Lantern1Black.o
 .text          0x07014074        0x0 build/tools/./assets/images/Decoration/Binary/Statue1.o
 .text          0x07014074        0x0 build/tools/./assets/images/Decoration/Binary/Thing1.o
 .text          0x07014074        0x0 build/tools/./assets/images/Decoration/Binary/Tree1.o
 .text          0x07014074        0x0 build/tools/./assets/images/Decoration/Definition/Thing1Definition.o
 .text          0x07014074        0x0 build/tools/./assets/images/Decoration/Definition/Tree1Definition.o
 .text          0x07014074        0x0 build/tools/./assets/images/Decoration/Definition/Clothes1Definition.o
 .text          0x07014074        0x0 build/tools/./assets/images/Decoration/Definition/Container1Definition.o
 .text          0x07014074        0x0 build/tools/./assets/images/Decoration/Definition/Statue1Definition.o
 .text          0x07014074        0x0 build/tools/./assets/images/Decoration/Definition/Bike1Definition.o
 .text          0x07014074        0x0 build/tools/./assets/images/Decoration/Definition/PlaygroundSign1Definition.o
 .text          0x07014074        0x0 build/tools/./assets/images/Decoration/Definition/Fence2Definition.o
 .text          0x07014074        0x0 build/tools/./assets/images/Decoration/Definition/BushBg1Definition.o
 .text          0x07014074        0x0 build/tools/./assets/images/Decoration/Definition/Fence1Definition.o
 .text          0x07014074        0x0 build/tools/./assets/images/Decoration/Definition/Lantern1Definition.o
 .text          0x07014074        0x0 build/tools/./assets/images/Decoration/Definition/TrashBin1Definition.o
 .text          0x07014074        0x0 build/tools/./assets/images/Decoration/Definition/BushBg2Definition.o
 .text          0x07014074        0x0 build/tools/./assets/images/Decoration/Definition/Bench1Definition.o
 .text          0x07014074        0x0 build/tools/./assets/images/Decoration/Definition/TreeBg1Definition.o
 .text          0x07014074        0x0 build/tools/./assets/images/Decoration/Definition/Motorbike1Definition.o
 .text          0x07014074        0x0 build/tools/./assets/images/Decoration/Definition/Car1Definition.o
 .text          0x07014074        0x0 build/tools/./assets/images/Decoration/Definition/CarBg1Definition.o
 .text          0x07014074        0x0 build/tools/./assets/images/Fonts/Binary/FontDefault.o
 .text          0x07014074        0x0 build/tools/./assets/images/Fonts/Definition/FontDefaultDefinition.o
 .text          0x07014074        0x0 build/tools/./assets/images/Gui/Binary/Gui.o
 .text          0x07014074        0x0 build/tools/./assets/images/Gui/Definition/GuiDefinition.o
 .text          0x07014074        0x0 build/tools/./assets/images/Hero/Binary/HeroBlack.o
 .text          0x07014074        0x0 build/tools/./assets/images/Hero/Binary/Hero.o
 .text          0x07014074        0x0 build/tools/./assets/images/Hero/Definition/HeroDefinition.o
 .text          0x07014074        0x0 build/tools/./assets/images/TitleScreen/Binary/TitleCapitanBlack.o
 .text          0x07014074        0x0 build/tools/./assets/images/TitleScreen/Binary/TitleEarth.o
 .text          0x07014074        0x0 build/tools/./assets/images/TitleScreen/Binary/TitleLogo.o
 .text          0x07014074        0x0 build/tools/./assets/images/TitleScreen/Binary/TitleCapitan.o
 .text          0x07014074        0x0 build/tools/./assets/images/TitleScreen/Binary/TitleSubTitle.o
 .text          0x07014074        0x0 build/tools/./assets/images/TitleScreen/Binary/TitleLogoBlack.o
 .text          0x07014074        0x0 build/tools/./assets/images/TitleScreen/Definition/TitleEarthDefinition.o
 .text          0x07014074        0x0 build/tools/./assets/images/TitleScreen/Definition/TitleSubTitleDefinition.o
 .text          0x07014074        0x0 build/tools/./assets/images/TitleScreen/Definition/TitleCapitanDefinition.o
 .text          0x07014074        0x0 build/tools/./assets/images/TitleScreen/Definition/TitleLogoDefinition.o
 .text          0x07014074        0x0 build/tools/./assets/languages/Language_DE.o
 .text          0x07014074        0x0 build/tools/./assets/languages/Language_ES.o
 .text          0x07014074        0x0 build/tools/./assets/languages/Languages.o
 .text          0x07014074        0x0 build/tools/./assets/languages/Language_FR.o
 .text          0x07014074        0x0 build/tools/./assets/languages/Language_EN.o
 .text          0x07014074        0x0 build/tools/./assets/levels/Level1Definition.o
 .text          0x07014074        0x0 build/tools/./assets/sounds/CollectDefinition.o
 .text          0x07014074        0x0 build/tools/./assets/sounds/BGM1Definition.o
 .text          0x07014074        0x0 build/tools/./assets/sounds/JumpDefinition.o
 .text          0x07014074        0x0 build/tools/./assets/sounds/FireDefinition.o
 .text          0x07014074        0x0 build/tools/./assets/sounds/BGM2Definition.o
 .text          0x07014074        0x0 build/tools/./assets/stages/Level1/Definition/Level1MainStageDefinition.o
 .text          0x07014074        0x0 build/tools/./assets/stages/Various/Definition/TitleScreenStageDefinition.o
 .text          0x07014074        0x0 build/tools/./assets/stages/Various/Definition/EmptyStageDefinition.o
 .text          0x07014074        0x0 build/tools/./assets/stages/Various/Definition/AdjustmentScreenStageDefinition.o
 .text          0x07014074        0x0 build/tools/./assets/stages/Various/Definition/PauseScreenStageDefinition.o
 .text          0x07014074      0x1d0 C:/vbde/samples/vuengine/capitan-sevilla/lib/compiler/setupClasses.o
                0x07014074                _setupClasses
 .text          0x07014244      0x210 build\libvuengine.a(crt0.o)
                0x07014244                _start
                0x07014384                __interrupt_handler_prolog
 .text          0x07014454     0x2c74 build\libvuengine.a(Game.o)
                0x07014454                _Game_getBaseClass
                0x07014460                _Game_getClassName
                0x07014620                _Game_destructor
                0x07014664                _Game_setVTable
                0x070146fc                _Game_handleMessage
                0x070148e0                _Game_getObjectSize
                0x070148e8                _Game_checkVTable
                0x07014b04                _Game_getInstance
                0x07014b2c                _Game_isConstructed
                0x07014b3c                _Game_changeState
                0x07014b48                _Game_cleanAndChangeState
                0x07014b54                _Game_addState
                0x07014b60                _Game_disableHardwareInterrupts
                0x07014b64                _Game_enableHardwareInterrupts
                0x07014b68                _Game_synchronizeGraphics
                0x07014c50                _Game_stream
                0x07014d0c                _Game_increaseGameFrameDuration
                0x07014d18                _Game_currentFrameEnded
                0x07014d20                _Game_setLastProcessName
                0x07014d28                _Game_getTime
                0x07014d40                _Game_getClock
                0x07014d48                _Game_getMessagingClock
                0x07014d64                _Game_getUpdateClock
                0x07014d80                _Game_getPhysicsClock
                0x07014d9c                _Game_getLastProcessName
                0x07014da4                _Game_isInDebugMode
                0x07014dcc                _Game_isInStageEditor
                0x07014df4                _Game_isInAnimationInspector
                0x07014e1c                _Game_isInSpecialMode
                0x07014e80                _Game_isEnteringSpecialMode
                0x07014ec8                _Game_isExitingSpecialMode
                0x07014f10                _Game_getStateMachine
                0x07014f18                _Game_getStage
                0x07014f98                _Game_getCurrentState
                0x07014fb0                _Game_getPhysicalWorld
                0x07015030                _Game_getCollisionManager
                0x070150b0                _Game_pause
                0x070150c0                _Game_unpause
                0x0701511c                _Game_setAutomaticPauseState
                0x07015124                _Game_getAutomaticPauseState
                0x0701512c                _Game_disableKeypad
                0x07015144                _Game_enableKeypad
                0x0701515c                _Game_pushFrontProcessingEffect
                0x07015174                _Game_pushBackProcessingEffect
                0x0701518c                _Game_removePostProcessingEffect
                0x070151a4                _Game_wait
                0x070151bc                _Game_saveProcessNameDuringFRAMESTART
                0x070151cc                _Game_saveProcessNameDuringXPEND
                0x070151dc                _Game_showCurrentGameFrameProfiling
                0x0701581c                _Game_showLastGameFrameProfiling
                0x07015f84                _Game_resetCurrentFrameProfiling
                0x07015fd8                _Game_resetProfiling
                0x07016268                _Game_checkFrameRate
                0x070163bc                _Game_start
                0x07016ff8                _Game_reset
 .text          0x070170c8      0x524 build\libvuengine.a(Error.o)
                0x070170c8                _Error_getBaseClass
                0x070170d4                _Error_getClassName
                0x070170e0                _Error_destructor
                0x070170fc                _Error_setVTable
                0x070171b0                _Error_getObjectSize
                0x070171b4                _Error_triggerException
                0x07017570                _Error_getInstance
                0x07017598                _Error_checkVTable
 .text          0x070175ec      0x3cc build\libvuengine.a(FrameRate.o)
                0x070175ec                _FrameRate_getBaseClass
                0x070175f8                _FrameRate_getClassName
                0x07017604                _FrameRate_destructor
                0x07017620                _FrameRate_setVTable
                0x070176e0                _FrameRate_getObjectSize
                0x070176e4                _FrameRate_checkVTable
                0x07017900                _FrameRate_getInstance
                0x07017928                _FrameRate_reset
                0x07017930                _FrameRate_getFps
                0x07017938                _FrameRate_increaseFps
                0x07017944                _FrameRate_print
 .text          0x070179b8      0x3a4 build\libvuengine.a(I18n.o)
                0x070179b8                _I18n_getBaseClass
                0x070179c4                _I18n_getClassName
                0x070179d0                _I18n_destructor
                0x070179ec                _I18n_setVTable
                0x07017aac                _I18n_getObjectSize
                0x07017ab0                _I18n_checkVTable
                0x07017ccc                _I18n_getInstance
                0x07017cf4                _I18n_getText
                0x07017d24                _I18n_setActiveLanguage
                0x07017d2c                _I18n_getLanguages
                0x07017d38                _I18n_getActiveLanguage
                0x07017d40                _I18n_getActiveLanguageName
 .text          0x07017d5c      0x2f8 build\libvuengine.a(VirtualNode.o)
                0x07017d5c                _VirtualNode_getBaseClass
                0x07017d68                _VirtualNode_getClassName
                0x07017d74                _VirtualNode_setVTable
                0x07017e20                _VirtualNode_getObjectSize
                0x07017e28                _VirtualNode_checkVTable
                0x07017fac                _VirtualNode_new
                0x07018004                _VirtualNode_setData
                0x0701800c                _VirtualNode_getData
                0x07018014                _VirtualNode_getNext
                0x0701801c                _VirtualNode_setNext
                0x07018024                _VirtualNode_getPrevious
                0x0701802c                _VirtualNode_setPrevious
                0x07018034                _VirtualNode_swapData
 .text          0x07018054      0x8f4 build\libvuengine.a(VirtualList.o)
                0x07018054                _VirtualList_getBaseClass
                0x07018060                _VirtualList_getClassName
                0x0701806c                _VirtualList_setVTable
                0x07018104                _VirtualList_destructor
                0x07018150                _VirtualList_getObjectSize
                0x07018158                _VirtualList_checkVTable
                0x070182dc                _VirtualList_new
                0x07018324                _VirtualList_clear
                0x07018368                _VirtualList_pushFront
                0x070183b8                _VirtualList_popFront
                0x0701840c                _VirtualList_popBack
                0x07018460                _VirtualList_pushBack
                0x070184b4                _VirtualList_getSize
                0x070184cc                _VirtualList_getNodeData
                0x07018514                _VirtualList_getNode
                0x07018554                _VirtualList_getObject
                0x07018578                _VirtualList_removeNode
                0x070185f8                _VirtualList_find
                0x07018614                _VirtualList_getDataPosition
                0x07018644                _VirtualList_getNodePosition
                0x07018674                _VirtualList_removeElement
                0x07018710                _VirtualList_copy
                0x070187a4                _VirtualList_begin
                0x070187ac                _VirtualList_front
                0x070187c0                _VirtualList_end
                0x070187c8                _VirtualList_back
                0x070187dc                _VirtualList_insertAfter
                0x0701886c                _VirtualList_insertBefore
                0x070188e4                _VirtualList_swap
                0x07018908                _VirtualList_getObjectAtPosition
 .text          0x07018948      0x4a8 build\libvuengine.a(State.o)
                0x07018948                _State_getBaseClass
                0x07018954                _State_getClassName
                0x07018960                _State_enter
                0x07018964                _State_execute
                0x07018968                _State_exit
                0x0701896c                _State_suspend
                0x07018970                _State_resume
                0x07018974                _State_destructor
                0x07018988                _State_setVTable
                0x07018a74                _State_getObjectSize
                0x07018a78                _State_checkVTable
                0x07018ddc                _State_constructor
 .text          0x07018df0      0x53c build\libvuengine.a(Clock.o)
                0x07018df0                _Clock_getBaseClass
                0x07018dfc                _Clock_getClassName
                0x07018e08                _Clock_destructor
                0x07018e34                _Clock_setVTable
                0x07018edc                _Clock_update
                0x07018f40                _Clock_getObjectSize
                0x07018f48                _Clock_checkVTable
                0x0701911c                _Clock_new
                0x0701917c                _Clock_print
                0x0701924c                _Clock_reset
                0x0701925c                _Clock_getMilliSeconds
                0x07019264                _Clock_getSeconds
                0x07019270                _Clock_getMinutes
                0x07019280                _Clock_getTime
                0x07019288                _Clock_getTimeInCurrentSecond
                0x070192d8                _Clock_setTimeInSeconds
                0x070192ec                _Clock_setTimeInMilliSeconds
                0x070192f4                _Clock_start
                0x07019308                _Clock_stop
                0x0701931c                _Clock_pause
                0x07019324                _Clock_isPaused
 .text          0x0701932c      0x7b4 build\libvuengine.a(Object.o)
                0x0701932c                _Object_getBaseClass
                0x07019338                _Object_getClassName
                0x07019344                _Object_destructor
                0x07019394                _Object_handleMessage
                0x07019398                _Object_getObjectSize
                0x0701939c                _Object_setVTable
                0x070193e0                _Object_checkVTable
                0x07019564                _Object_constructor
                0x0701956c                _Object_addEventListener
                0x0701960c                _Object_removeEventListener
                0x07019664                _Object_removeEventListeners
                0x07019740                _Object_removeAllEventListeners
                0x0701980c                _Object_fireEvent
                0x0701994c                _Object_getCast
                0x07019ad8                _Object_getVTable
 .text          0x07019ae0     0x1288 build\libvuengine.a(MemoryPool.o)
                0x07019ae0                _MemoryPool_getBaseClass
                0x07019aec                _MemoryPool_getClassName
                0x07019af8                _MemoryPool_destructor
                0x07019b14                _MemoryPool_setVTable
                0x0701a05c                _MemoryPool_getObjectSize
                0x0701a068                _MemoryPool_checkVTable
                0x0701a1ec                _MemoryPool_getInstance
                0x0701a210                _MemoryPool_free
                0x0701a250                _MemoryPool_cleanUp
                0x0701a2c4                _MemoryPool_getPoolSize
                0x0701a3a0                _MemoryPool_printDetailedUsage
                0x0701a7d4                _MemoryPool_allocate
                0x0701a9f4                _MemoryPool_printResumedUsage
 .text          0x0701ad68      0x458 build\libvuengine.a(ClockManager.o)
                0x0701ad68                _ClockManager_getBaseClass
                0x0701ad74                _ClockManager_getClassName
                0x0701ad80                _ClockManager_destructor
                0x0701ade0                _ClockManager_setVTable
                0x0701aea4                _ClockManager_getObjectSize
                0x0701aea8                _ClockManager_checkVTable
                0x0701b0c4                _ClockManager_getInstance
                0x0701b0ec                _ClockManager_register
                0x0701b134                _ClockManager_unregister
                0x0701b14c                _ClockManager_update
                0x0701b18c                _ClockManager_reset
 .text          0x0701b1c0      0xaf4 build\libvuengine.a(MessageDispatcher.o)
                0x0701b1c0                _MessageDispatcher_getBaseClass
                0x0701b1cc                _MessageDispatcher_getClassName
                0x0701b1d8                _MessageDispatcher_setVTable
                0x0701b2fc                _MessageDispatcher_getObjectSize
                0x0701b304                _MessageDispatcher_checkVTable
                0x0701b520                _MessageDispatcher_getInstance
                0x0701b548                _MessageDispatcher_dispatchMessage
                0x0701b644                _MessageDispatcher_dispatchDelayedMessage
                0x0701b6dc                _MessageDispatcher_processDiscardedMessages
                0x0701b770                _MessageDispatcher_dispatchDelayedMessages
                0x0701b8e4                _MessageDispatcher_discardDelayedMessagesWithClock
                0x0701b954                _MessageDispatcher_discardDelayedMessagesFromSender
                0x0701b9e8                _MessageDispatcher_discardDelayedMessagesForReceiver
                0x0701baa0                _MessageDispatcher_discardAllDelayedMessagesFromSender
                0x0701bb38                _MessageDispatcher_discardAllDelayedMessagesForReceiver
                0x0701bbd0                _MessageDispatcher_print
 .text          0x0701bcb4      0x2f4 build\libvuengine.a(Telegram.o)
                0x0701bcb4                _Telegram_getBaseClass
                0x0701bcc0                _Telegram_getClassName
                0x0701bccc                _Telegram_destructor
                0x0701bce8                _Telegram_setVTable
                0x0701bd80                _Telegram_getObjectSize
                0x0701bd88                _Telegram_checkVTable
                0x0701bf0c                _Telegram_new
                0x0701bf88                _Telegram_getSender
                0x0701bf90                _Telegram_getReceiver
                0x0701bf98                _Telegram_getMessage
                0x0701bfa0                _Telegram_getExtraInfo
 .text          0x0701bfa8      0x608 build\libvuengine.a(StateMachine.o)
                0x0701bfa8                _StateMachine_getBaseClass
                0x0701bfb4                _StateMachine_getClassName
                0x0701bfc0                _StateMachine_handleMessage
                0x0701bffc                _StateMachine_destructor
                0x0701c060                _StateMachine_setVTable
                0x0701c0f8                _StateMachine_getObjectSize
                0x0701c100                _StateMachine_checkVTable
                0x0701c284                _StateMachine_new
                0x0701c2e4                _StateMachine_constructor
                0x0701c320                _StateMachine_update
                0x0701c34c                _StateMachine_swapState
                0x0701c3c0                _StateMachine_pushState
                0x0701c430                _StateMachine_popState
                0x0701c4b4                _StateMachine_returnToPreviousState
                0x0701c4fc                _StateMachine_changeToGlobal
                0x0701c560                _StateMachine_isInState
                0x0701c56c                _StateMachine_setOwner
                0x0701c574                _StateMachine_getCurrentState
                0x0701c57c                _StateMachine_getPreviousState
                0x0701c598                _StateMachine_getStackSize
 .text          0x0701c5b0      0x14c build\libvuengine.a(Mem.o)
                0x0701c5b0                _memcpy
                0x0701c5cc                _Mem_clear
                0x0701c640                _Mem_copyBYTE
                0x0701c68c                _Mem_copyHWORD
                0x0701c6a8                _Mem_copyWORD
                0x0701c6c4                _Mem_addBYTE
                0x0701c6e0                _Mem_addHWORD
 .text          0x0701c6fc      0x270 build\libvuengine.a(Utilities.o)
                0x0701c6fc                _Utilities_setClock
                0x0701c708                _Utilities_intLength
                0x0701c720                _Utilities_itoa
                0x0701c800                _Utilities_toUppercase
                0x0701c840                _Utilities_toLowercase
                0x0701c880                _Utilities_randomSeed
                0x0701c8b8                _Utilities_random
                0x0701c8d4                _Utilities_equalSign
                0x0701c8e4                _Utilities_getDigitCount
                0x0701c8f4                _Utilities_reverse
 .text          0x0701c96c       0xe4 build\libvuengine.a(Math.o)
                0x0701c96c                _Math_squareRoot
                0x0701c9a4                _Math_powerFast
                0x0701c9f0                _Math_multiply
                0x0701ca00                _Math_power
                0x0701ca3c                _Math_intInfinity
                0x0701ca48                _Math_fix10_6Infinity
 .text          0x0701ca50      0xb94 build\libvuengine.a(CameraEffectManager.o)
                0x0701ca50                _CameraEffectManager_getBaseClass
                0x0701ca5c                _CameraEffectManager_getClassName
                0x0701ca68                _CameraEffectManager_FXFadeIn
                0x0701ca9c                _CameraEffectManager_FXFadeOut
                0x0701cad0                _CameraEffectManager_setVTable
                0x0701cb88                _CameraEffectManager_stopEffect
                0x0701cbec                _CameraEffectManager_destructor
                0x0701cc4c                _CameraEffectManager_getObjectSize
                0x0701cc54                _CameraEffectManager_checkVTable
                0x0701cf28                _CameraEffectManager_getInstance
                0x0701cf50                _CameraEffectManager_constructor
                0x0701cf78                _CameraEffectManager_getDefaultBrightness
                0x0701cfe4                _CameraEffectManager_FXFadeStart
                0x0701d0f8                _CameraEffectManager_FXFadeAsyncStart
                0x0701d27c                _CameraEffectManager_startEffect
                0x0701d35c                _CameraEffectManager_FXFadeAsyncStop
                0x0701d3b0                _CameraEffectManager_showCamera
                0x0701d418                _CameraEffectManager_hideCamera
                0x0701d430                _CameraEffectManager_FXFadeAsync
                0x0701d5b8                _CameraEffectManager_handleMessage
 .text          0x0701d5e4      0x4f0 build\libvuengine.a(CameraMovementManager.o)
                0x0701d5e4                _CameraMovementManager_getBaseClass
                0x0701d5f0                _CameraMovementManager_getClassName
                0x0701d5fc                _CameraMovementManager_focus
                0x0701d760                _CameraMovementManager_destructor
                0x0701d77c                _CameraMovementManager_setVTable
                0x0701d824                _CameraMovementManager_getObjectSize
                0x0701d828                _CameraMovementManager_checkVTable
                0x0701d9fc                _CameraMovementManager_constructor
                0x0701daac                _CameraMovementManager_getInstance
 .text          0x0701dad4      0xac8 build\libvuengine.a(Camera.o)
                0x0701dad4                _Camera_getBaseClass
                0x0701dae0                _Camera_getClassName
                0x0701daec                _Camera_destructor
                0x0701db08                _Camera_setVTable
                0x0701dcac                _Camera_getObjectSize
                0x0701dcb4                _Camera_checkVTable
                0x0701ded0                _Camera_getInstance
                0x0701def8                _Camera_setCameraMovementManager
                0x0701df3c                _Camera_setCameraEffectManager
                0x0701df80                _Camera_focus
                0x0701dfec                _Camera_setFocusGameEntity
                0x0701e070                _Camera_unsetFocusEntity
                0x0701e084                _Camera_getFocusEntity
                0x0701e08c                _Camera_onFocusEntityDeleted
                0x0701e0a8                _Camera_move
                0x0701e160                _Camera_capPosition
                0x0701e1cc                _Camera_getPosition
                0x0701e1e8                _Camera_setPosition
                0x0701e280                _Camera_prepareForUITransform
                0x0701e2a8                _Camera_doneUITransform
                0x0701e2d0                _Camera_getOptical
                0x0701e2f4                _Camera_setOptical
                0x0701e334                _Camera_setFocusEntityPositionDisplacement
                0x0701e3bc                _Camera_getLastDisplacement
                0x0701e3d8                _Camera_getStageSize
                0x0701e3f4                _Camera_setStageSize
                0x0701e418                _Camera_forceDisplacement
                0x0701e440                _Camera_startEffect
                0x0701e468                _Camera_stopEffect
                0x0701e48c                _Camera_reset
                0x0701e4bc                _Camera_resetCameraFrustum
                0x0701e4d8                _Camera_setCameraFrustum
                0x0701e578                _Camera_getCameraFrustum
 .text          0x0701e59c      0xc7c build\libvuengine.a(Printing.o)
                0x0701e59c                _Printing_getBaseClass
                0x0701e5a8                _Printing_getClassName
                0x0701e5b4                _Printing_destructor
                0x0701e5f0                _Printing_setVTable
                0x0701e6c4                _Printing_getObjectSize
                0x0701e6cc                _Printing_checkVTable
                0x0701e8e8                _Printing_getInstance
                0x0701e910                _Printing_render
                0x0701e988                _Printing_reset
                0x0701e9dc                _Printing_loadFonts
                0x0701eae8                _Printing_loadDebugFont
                0x0701eb14                _Printing_setDebugMode
                0x0701eb40                _Printing_setPalette
                0x0701eb50                _Printing_clear
                0x0701eb94                _Printing_getFontByName
                0x0701ee54                _Printing_int
                0x0701ef04                _Printing_hex
                0x0701ef60                _Printing_text
                0x0701ef88                _Printing_float
                0x0701f114                _Printing_setWorldCoordinates
                0x0701f13c                _Printing_resetWorldCoordinates
                0x0701f144                _Printing_getPixelCount
                0x0701f164                _Printing_getTextSize
 .text          0x0701f218     0x1590 build\libvuengine.a(SpriteManager.o)
                0x0701f218                _SpriteManager_getBaseClass
                0x0701f224                _SpriteManager_getClassName
                0x0701f318                _SpriteManager_setVTable
                0x0701f3b0                _SpriteManager_getObjectSize
                0x0701f3b8                _SpriteManager_checkVTable
                0x0701f53c                _SpriteManager_reset
                0x0701f724                _SpriteManager_getInstance
                0x0701f74c                _SpriteManager_destructor
                0x0701f850                _SpriteManager_setupObjectSpriteContainers
                0x0701fbd4                _SpriteManager_createSprite
                0x0701fcdc                _SpriteManager_disposeSprite
                0x0701fd2c                _SpriteManager_disposeSprites
                0x0701fdd8                _SpriteManager_sortLayers
                0x0701fec4                _SpriteManager_sortLayersProgressively
                0x0701ffb8                _SpriteManager_renderLastLayer
                0x07020000                _SpriteManager_writeTextures
                0x0702006c                _SpriteManager_render
                0x070202cc                _SpriteManager_getFreeLayer
                0x070202d4                _SpriteManager_showLayer
                0x07020398                _SpriteManager_recoverLayers
                0x07020468                _SpriteManager_getSpriteAtLayer
                0x07020498                _SpriteManager_getTexturesMaximumRowsToWrite
                0x070204a0                _SpriteManager_setCyclesToWaitForTextureWriting
                0x070204a8                _SpriteManager_setTexturesMaximumRowsToWrite
                0x070204c0                _SpriteManager_deferParamTableEffects
                0x070204c8                _SpriteManager_getMaximumParamTableRowsToComputePerCall
                0x070204dc                _SpriteManager_setMaximumParamTableRowsToComputePerCall
                0x070204e4                _SpriteManager_print
 .text          0x070207a8     0x105c build\libvuengine.a(Sprite.o)
                0x070207a8                _Sprite_getBaseClass
                0x070207b4                _Sprite_getClassName
                0x070207c0                _Sprite_getScale
                0x070207d4                _Sprite_show
                0x070207dc                _Sprite_hide
                0x070207e4                _Sprite_position
                0x070207f8                _Sprite_setPosition
                0x0702080c                _Sprite_calculateParallax
                0x07020810                _Sprite_getWorldLayer
                0x07020818                _Sprite_writeTextures
                0x07020878                _Sprite_areTexturesWritten
                0x07020890                _Sprite_rotate
                0x07020894                _Sprite_writeAnimation
                0x07020898                _Sprite_applyAffineTransformations
                0x0702089c                _Sprite_applyHbiasEffects
                0x070208a0                _Sprite_resize
                0x070208d8                _Sprite_destructor
                0x070208ec                _Sprite_setVTable
                0x07020a2c                _Sprite_getObjectSize
                0x07020a34                _Sprite_checkVTable
                0x07020b18                _Sprite_constructor
                0x07020b98                _Sprite_getTexture
                0x07020ba0                _Sprite_isHidden
                0x07020ba8                _Sprite_getAnimationController
                0x07020bb0                _Sprite_setWorldLayer
                0x07020be0                _Sprite_getHead
                0x07020be8                _Sprite_getMode
                0x07020bf4                _Sprite_getWorldHead
                0x07020c14                _Sprite_getWorldGX
                0x07020c30                _Sprite_getWorldGY
                0x07020c4c                _Sprite_getWorldGP
                0x07020c68                _Sprite_getWorldMX
                0x07020c84                _Sprite_getWorldMY
                0x07020ca0                _Sprite_getWorldMP
                0x07020cbc                _Sprite_getWorldWidth
                0x07020cd8                _Sprite_getWorldHeight
                0x07020cf4                _Sprite_rewrite
                0x07020d1c                _Sprite_onTextureRewritten
                0x07020d58                _Sprite_getDisplacement
                0x07020d7c                _Sprite_getHalfWidth
                0x07020d84                _Sprite_getHalfHeight
                0x07020d8c                _Sprite_update
                0x07020e0c                _Sprite_isTransparent
                0x07020e18                _Sprite_setTransparent
                0x07020e44                _Sprite_updateAnimation
                0x07020e8c                _Sprite_pause
                0x07020eac                _Sprite_play
                0x07020ee4                _Sprite_isPlaying
                0x07020f0c                _Sprite_isPlayingFunction
                0x07020f34                _Sprite_setFrameCycleDecrement
                0x07020f54                _Sprite_getActualFrame
                0x07020f78                _Sprite_setActualFrame
                0x07020f98                _Sprite_nextFrame
                0x07020fcc                _Sprite_previousFrame
                0x07021000                _Sprite_getFrameDuration
                0x07021024                _Sprite_setFrameDuration
                0x07021044                _Sprite_isAffine
                0x07021050                _Sprite_isHBias
                0x0702105c                _Sprite_isObject
                0x07021070                _Sprite_print
                0x070217c0                _Sprite_putChar
                0x070217e4                _Sprite_putPixel
 .text          0x07021804      0x3dc build\libvuengine.a(AnimationCoordinator.o)
                0x07021804                _AnimationCoordinator_getBaseClass
                0x07021810                _AnimationCoordinator_getClassName
                0x0702181c                _AnimationCoordinator_destructor
                0x07021854                _AnimationCoordinator_setVTable
                0x070218f4                _AnimationCoordinator_getObjectSize
                0x070218fc                _AnimationCoordinator_checkVTable
                0x07021b20                _AnimationCoordinator_constructor
                0x07021b54                _AnimationCoordinator_getCharSetDefinition
                0x07021b5c                _AnimationCoordinator_playAnimation
 .text          0x07021be0      0x700 build\libvuengine.a(AnimationController.o)
                0x07021be0                _AnimationController_getBaseClass
                0x07021bec                _AnimationController_getClassName
                0x07021bf8                _AnimationController_destructor
                0x07021c34                _AnimationController_setVTable
                0x07021ccc                _AnimationController_getObjectSize
                0x07021cd4                _AnimationController_checkVTable
                0x07021e58                _AnimationController_new
                0x07021eec                _AnimationController_constructor
                0x07021f54                _AnimationController_getActualFrameIndex
                0x07021f70                _AnimationController_getActualFrame
                0x07021f78                _AnimationController_getPreviousFrame
                0x07021f80                _AnimationController_setActualFrame
                0x07021f88                _AnimationController_getFrameDuration
                0x07021f90                _AnimationController_setFrameDuration
                0x07021f98                _AnimationController_getFrameCycleDecrement
                0x07021fa0                _AnimationController_setFrameCycleDecrement
                0x07021fa8                _AnimationController_updateAnimation
                0x07022074                _AnimationController_playAnimationFunction
                0x070220e0                _AnimationController_getPlayingAnimationFunction
                0x070220f4                _AnimationController_play
                0x070221c8                _AnimationController_stop
                0x070221d8                _AnimationController_nextFrame
                0x07022230                _AnimationController_previousFrame
                0x07022288                _AnimationController_isPlayingFunction
                0x070222a8                _AnimationController_isPlaying
                0x070222b0                _AnimationController_pause
                0x070222cc                _AnimationController_getNumberOfFrames
 .text          0x070222e0      0x4dc build\libvuengine.a(AnimationCoordinatorFactory.o)
                0x070222e0                _AnimationCoordinatorFactory_getBaseClass
                0x070222ec                _AnimationCoordinatorFactory_getClassName
                0x070222f8                _AnimationCoordinatorFactory_setVTable
                0x070223bc                _AnimationCoordinatorFactory_destructor
                0x07022434                _AnimationCoordinatorFactory_getObjectSize
                0x07022438                _AnimationCoordinatorFactory_checkVTable
                0x07022654                _AnimationCoordinatorFactory_getInstance
                0x0702267c                _AnimationCoordinatorFactory_reset
                0x070226cc                _AnimationCoordinatorFactory_getCoordinator
 .text          0x070227bc      0xdd4 build\libvuengine.a(BgmapSprite.o)
                0x070227bc                _BgmapSprite_getBaseClass
                0x070227c8                _BgmapSprite_getClassName
                0x070227d4                _BgmapSprite_getScale
                0x070227f0                _BgmapSprite_getPosition
                0x07022814                _BgmapSprite_setPosition
                0x07022868                _BgmapSprite_position
                0x07022920                _BgmapSprite_resize
                0x07022a60                _BgmapSprite_addDisplacement
                0x07022a9c                _BgmapSprite_applyAffineTransformations
                0x07022aa4                _BgmapSprite_applyHbiasEffects
                0x07022b34                _BgmapSprite_calculateParallax
                0x07022b7c                _BgmapSprite_destructor
                0x07022bf0                _BgmapSprite_setVTable
                0x07022d60                _BgmapSprite_setMode
                0x07022dc0                _BgmapSprite_rotate
                0x07022eb4                _BgmapSprite_getObjectSize
                0x07022ebc                _BgmapSprite_checkVTable
                0x07022fa0                _BgmapSprite_constructor
                0x07023134                _BgmapSprite_new
                0x0702318c                _BgmapSprite_getDrawSpec
                0x070231b4                _BgmapSprite_processAffineEffects
                0x070232a4                _BgmapSprite_render
                0x07023484                _BgmapSprite_processHbiasEffects
                0x07023518                _BgmapSprite_getParam
                0x07023520                _BgmapSprite_setParam
                0x07023548                _BgmapSprite_invalidateParamTable
                0x0702356c                _BgmapSprite_setDrawSpec
                0x07023588                _BgmapSprite_getParamTableRow
 .text          0x07023590      0x9d0 build\libvuengine.a(ParamTableManager.o)
                0x07023590                _ParamTableManager_getBaseClass
                0x0702359c                _ParamTableManager_getClassName
                0x070235a8                _ParamTableManager_setVTable
                0x07023640                _ParamTableManager_destructor
                0x070236e0                _ParamTableManager_getObjectSize
                0x070236e8                _ParamTableManager_checkVTable
                0x0702386c                _ParamTableManager_constructor
                0x07023984                _ParamTableManager_getInstance
                0x070239ac                _ParamTableManager_reset
                0x07023a10                _ParamTableManager_calculateParamTableBase
                0x07023adc                _ParamTableManager_getParamTableBase
                0x07023ae4                _ParamTableManager_allocate
                0x07023c30                _ParamTableManager_free
                0x07023cf0                _ParamTableManager_defragmentProgressively
                0x07023e18                _ParamTableManager_print
 .text          0x07023f60      0x41c build\libvuengine.a(BgmapAnimationCoordinator.o)
                0x07023f60                _BgmapAnimationCoordinator_getBaseClass
                0x07023f6c                _BgmapAnimationCoordinator_getClassName
                0x07023f78                _BgmapAnimationCoordinator_removeAnimationController
                0x07023f90                _BgmapAnimationCoordinator_addAnimationController
                0x07024028                _BgmapAnimationCoordinator_destructor
                0x0702403c                _BgmapAnimationCoordinator_setVTable
                0x070240f4                _BgmapAnimationCoordinator_getObjectSize
                0x070240fc                _BgmapAnimationCoordinator_checkVTable
                0x07024320                _BgmapAnimationCoordinator_new
                0x07024368                _BgmapAnimationCoordinator_constructor
 .text          0x0702437c      0xac0 build\libvuengine.a(MBgmapSprite.o)
                0x0702437c                _MBgmapSprite_getBaseClass
                0x07024388                _MBgmapSprite_getClassName
                0x07024394                _MBgmapSprite_setPosition
                0x07024440                _MBgmapSprite_addDisplacement
                0x070244dc                _MBgmapSprite_getPosition
                0x07024500                _MBgmapSprite_resize
                0x07024588                _MBgmapSprite_setMode
                0x0702458c                _MBgmapSprite_writeTextures
                0x070245d0                _MBgmapSprite_areTexturesWritten
                0x070245f8                _MBgmapSprite_destructor
                0x07024774                _MBgmapSprite_setVTable
                0x070248e4                _MBgmapSprite_render
                0x07024acc                _MBgmapSprite_position
                0x07024c1c                _MBgmapSprite_getObjectSize
                0x07024c24                _MBgmapSprite_checkVTable
                0x07024d08                _MBgmapSprite_new
                0x07024dbc                _MBgmapSprite_constructor
 .text          0x07024e3c      0x4f8 build\libvuengine.a(BgmapAnimatedSprite.o)
                0x07024e3c                _BgmapAnimatedSprite_getBaseClass
                0x07024e48                _BgmapAnimatedSprite_getClassName
                0x07024e54                _BgmapAnimatedSprite_writeAnimation
                0x07024fac                _BgmapAnimatedSprite_destructor
                0x07024fe8                _BgmapAnimatedSprite_setVTable
                0x07025158                _BgmapAnimatedSprite_getObjectSize
                0x07025160                _BgmapAnimatedSprite_checkVTable
                0x07025244                _BgmapAnimatedSprite_new
                0x070252d0                _BgmapAnimatedSprite_constructor
 .text          0x07025334      0xf80 build\libvuengine.a(ObjectSpriteContainer.o)
                0x07025334                _ObjectSpriteContainer_getBaseClass
                0x07025340                _ObjectSpriteContainer_getClassName
                0x0702534c                _ObjectSpriteContainer_getPosition
                0x07025364                _ObjectSpriteContainer_setPosition
                0x070253e8                _ObjectSpriteContainer_show
                0x07025434                _ObjectSpriteContainer_hide
                0x07025484                _ObjectSpriteContainer_addDisplacement
                0x070254d4                _ObjectSpriteContainer_setMode
                0x070254d8                _ObjectSpriteContainer_writeTextures
                0x070254dc                _ObjectSpriteContainer_areTexturesWritten
                0x070254e0                _ObjectSpriteContainer_destructor
                0x07025550                _ObjectSpriteContainer_setVTable
                0x070256c0                _ObjectSpriteContainer_render
                0x07025a34                _ObjectSpriteContainer_getObjectSize
                0x07025a3c                _ObjectSpriteContainer_checkVTable
                0x07025b20                _ObjectSpriteContainer_new
                0x07025c50                _ObjectSpriteContainer_constructor
                0x07025d60                _ObjectSpriteContainer_addObjectSprite
                0x07025de4                _ObjectSpriteContainer_removeObjectSprite
                0x07025ed8                _ObjectSpriteContainer_hasRoomFor
                0x07025ee4                _ObjectSpriteContainer_getAvailableObjects
                0x07025eec                _ObjectSpriteContainer_getTotalUsedObjects
                0x07025f18                _ObjectSpriteContainer_getNextFreeObjectIndex
                0x07025f4c                _ObjectSpriteContainer_getFirstObjectIndex
                0x07025f54                _ObjectSpriteContainer_getLastObjectIndex
                0x07025f60                _ObjectSpriteContainer_print
 .text          0x070262b4      0x458 build\libvuengine.a(ObjectAnimatedSprite.o)
                0x070262b4                _ObjectAnimatedSprite_getBaseClass
                0x070262c0                _ObjectAnimatedSprite_getClassName
                0x070262cc                _ObjectAnimatedSprite_destructor
                0x07026308                _ObjectAnimatedSprite_setVTable
                0x07026478                _ObjectAnimatedSprite_writeAnimation
                0x070265b0                _ObjectAnimatedSprite_getObjectSize
                0x070265b8                _ObjectAnimatedSprite_checkVTable
                0x0702669c                _ObjectAnimatedSprite_new
 .text          0x0702670c      0xb14 build\libvuengine.a(ObjectSpriteContainerManager.o)
                0x0702670c                _ObjectSpriteContainerManager_getBaseClass
                0x07026718                _ObjectSpriteContainerManager_getClassName
                0x07026724                _ObjectSpriteContainerManager_setVTable
                0x07026808                _ObjectSpriteContainerManager_destructor
                0x07026888                _ObjectSpriteContainerManager_getObjectSize
                0x07026890                _ObjectSpriteContainerManager_checkVTable
                0x07026aac                _ObjectSpriteContainerManager_getInstance
                0x07026ad4                _ObjectSpriteContainerManager_reset
                0x07026b3c                _ObjectSpriteContainerManager_getObjectSpriteContainer
                0x07026d84                _ObjectSpriteContainerManager_getObjectSpriteContainerBySegment
                0x07026d98                _ObjectSpriteContainerManager_setupObjectSpriteContainers
                0x07027134                _ObjectSpriteContainerManager_setZPosition
                0x0702716c                _ObjectSpriteContainerManager_print
 .text          0x07027220      0xa2c build\libvuengine.a(ObjectSprite.o)
                0x07027220                _ObjectSprite_getBaseClass
                0x0702722c                _ObjectSprite_getClassName
                0x07027238                _ObjectSprite_rotate
                0x070272e0                _ObjectSprite_getPosition
                0x07027304                _ObjectSprite_getWorldLayer
                0x07027338                _ObjectSprite_addDisplacement
                0x07027374                _ObjectSprite_setMode
                0x07027378                _ObjectSprite_render
                0x07027568                _ObjectSprite_calculateParallax
                0x070275ac                _ObjectSprite_destructor
                0x070275fc                _ObjectSprite_setVTable
                0x0702776c                _ObjectSprite_getObjectSize
                0x07027774                _ObjectSprite_checkVTable
                0x07027858                _ObjectSprite_new
                0x07027930                _ObjectSprite_constructor
                0x070279d4                _ObjectSprite_getTotalObjects
                0x070279dc                _ObjectSprite_getObjectIndex
                0x070279e4                _ObjectSprite_setObjectIndex
                0x07027aac                _ObjectSprite_setPosition
                0x07027b44                _ObjectSprite_position
                0x07027c44                _ObjectSprite_invalidateObjectSpriteContainer
 .text          0x07027c4c      0x454 build\libvuengine.a(ObjectAnimationCoordinator.o)
                0x07027c4c                _ObjectAnimationCoordinator_getBaseClass
                0x07027c58                _ObjectAnimationCoordinator_getClassName
                0x07027c64                _ObjectAnimationCoordinator_addAnimationController
                0x07027ca0                _ObjectAnimationCoordinator_destructor
                0x07027cb4                _ObjectAnimationCoordinator_setVTable
                0x07027d6c                _ObjectAnimationCoordinator_removeAnimationController
                0x07027e18                _ObjectAnimationCoordinator_getObjectSize
                0x07027e20                _ObjectAnimationCoordinator_checkVTable
                0x07028044                _ObjectAnimationCoordinator_new
                0x0702808c                _ObjectAnimationCoordinator_constructor
 .text          0x070280a0      0x8b8 build\libvuengine.a(Texture.o)
                0x070280a0                _Texture_getBaseClass
                0x070280ac                _Texture_getClassName
                0x070280b8                _Texture_rewrite
                0x07028124                _Texture_setVTable
                0x070281dc                _Texture_write
                0x07028244                _Texture_destructor
                0x070282a4                _Texture_getObjectSize
                0x070282ac                _Texture_checkVTable
                0x070284d0                _Texture_new
                0x07028540                _Texture_constructor
                0x07028590                _Texture_setDefinition
                0x070285f0                _Texture_getDefinition
                0x070285f8                _Texture_releaseCharSet
                0x07028654                _Texture_writeHBiasMode
                0x07028658                _Texture_getNumberOfChars
                0x07028668                _Texture_getTextureDefinition
                0x07028670                _Texture_getTotalCols
                0x07028718                _Texture_getTotalRows
                0x070287d8                _Texture_getNumberOfFrames
                0x070287e4                _Texture_getCharSet
                0x07028850                _Texture_getMapDefinition
                0x07028864                _Texture_setPalette
                0x0702886c                _Texture_getPalette
                0x07028874                _Texture_getRows
                0x07028880                _Texture_getCols
                0x0702888c                _Texture_getId
                0x07028894                _Texture_putChar
                0x070288ec                _Texture_putPixel
                0x07028948                _Texture_isWritten
                0x07028950                _Texture_setMapDisplacement
 .text          0x07028958     0x1d24 build\libvuengine.a(BgmapTextureManager.o)
                0x07028958                _BgmapTextureManager_getBaseClass
                0x07028964                _BgmapTextureManager_getClassName
                0x07028f34                _BgmapTextureManager_destructor
                0x07028f50                _BgmapTextureManager_setVTable
                0x070296a0                _BgmapTextureManager_getObjectSize
                0x070296a8                _BgmapTextureManager_checkVTable
                0x070298c4                _BgmapTextureManager_getInstance
                0x070298ec                _BgmapTextureManager_reset
                0x07029f94                _BgmapTextureManager_releaseTexture
                0x0702a02c                _BgmapTextureManager_getTexture
                0x0702a2b8                _BgmapTextureManager_getXOffset
                0x0702a2c8                _BgmapTextureManager_getYOffset
                0x0702a2d4                _BgmapTextureManager_getAvailableBgmapSegmentsForTextures
                0x0702a2dc                _BgmapTextureManager_getPrintingBgmapSegment
                0x0702a2e4                _BgmapTextureManager_calculateAvailableBgmapSegments
                0x0702a324                _BgmapTextureManager_print
 .text          0x0702a67c      0x784 build\libvuengine.a(BgmapTexture.o)
                0x0702a67c                _BgmapTexture_getBaseClass
                0x0702a688                _BgmapTexture_getClassName
                0x0702a694                _BgmapTexture_write
                0x0702a9b4                _BgmapTexture_rewrite
                0x0702a9d8                _BgmapTexture_destructor
                0x0702a9f0                _BgmapTexture_setVTable
                0x0702aaa8                _BgmapTexture_getObjectSize
                0x0702aab0                _BgmapTexture_checkVTable
                0x0702acd4                _BgmapTexture_new
                0x0702ad6c                _BgmapTexture_getRemainingRowsToBeWritten
                0x0702ad74                _BgmapTexture_getXOffset
                0x0702ad98                _BgmapTexture_getYOffset
                0x0702adbc                _BgmapTexture_setSegment
                0x0702adc4                _BgmapTexture_getSegment
                0x0702adcc                _BgmapTexture_getUsageCount
                0x0702add4                _BgmapTexture_increaseUsageCount
                0x0702ade0                _BgmapTexture_decreaseUsageCount
 .text          0x0702ae00      0xb78 build\libvuengine.a(CharSetManager.o)
                0x0702ae00                _CharSetManager_getBaseClass
                0x0702ae0c                _CharSetManager_getClassName
                0x0702b034                _CharSetManager_setVTable
                0x0702b108                _CharSetManager_destructor
                0x0702b1a8                _CharSetManager_getObjectSize
                0x0702b1b0                _CharSetManager_checkVTable
                0x0702b3cc                _CharSetManager_getInstance
                0x0702b3f4                _CharSetManager_reset
                0x0702b458                _CharSetManager_getCharSet
                0x0702b520                _CharSetManager_releaseCharSet
                0x0702b5a0                _CharSetManager_writeCharSets
                0x0702b5e4                _CharSetManager_writeCharSetsProgressively
                0x0702b6c4                _CharSetManager_defragment
                0x0702b788                _CharSetManager_getTotalUsedChars
                0x0702b7c4                _CharSetManager_getTotalFreeChars
                0x0702b804                _CharSetManager_getTotalCharSets
                0x0702b81c                _CharSetManager_print
 .text          0x0702b978      0x4f4 build\libvuengine.a(CharSet.o)
                0x0702b978                _CharSet_getBaseClass
                0x0702b984                _CharSet_getClassName
                0x0702b990                _CharSet_destructor
                0x0702b9b8                _CharSet_setVTable
                0x0702ba50                _CharSet_getObjectSize
                0x0702ba58                _CharSet_checkVTable
                0x0702bbdc                _CharSet_new
                0x0702bc40                _CharSet_increaseUsageCount
                0x0702bc4c                _CharSet_decreaseUsageCount
                0x0702bc6c                _CharSet_getUsageCount
                0x0702bc74                _CharSet_getAllocationType
                0x0702bc80                _CharSet_getOffset
                0x0702bc8c                _CharSet_setOffset
                0x0702bc94                _CharSet_getCharSetDefinition
                0x0702bc9c                _CharSet_setCharSetDefinition
                0x0702bca4                _CharSet_getNumberOfChars
                0x0702bcb0                _CharSet_write
                0x0702bcec                _CharSet_rewrite
                0x0702bd3c                _CharSet_setCharDefinitionDisplacement
                0x0702bd44                _CharSet_putChar
                0x0702bd84                _CharSet_putPixel
 .text          0x0702be6c      0x454 build\libvuengine.a(ObjectTexture.o)
                0x0702be6c                _ObjectTexture_getBaseClass
                0x0702be78                _ObjectTexture_getClassName
                0x0702be84                _ObjectTexture_destructor
                0x0702be9c                _ObjectTexture_setVTable
                0x0702bf54                _ObjectTexture_write
                0x0702c01c                _ObjectTexture_getObjectSize
                0x0702c024                _ObjectTexture_checkVTable
                0x0702c248                _ObjectTexture_new
                0x0702c2ac                _ObjectTexture_setObjectIndex
 .text          0x0702c2c0      0x314 build\libvuengine.a(Wireframe.o)
                0x0702c2c0                _Wireframe_getBaseClass
                0x0702c2cc                _Wireframe_getClassName
                0x0702c2d8                _Wireframe_setVTable
                0x0702c374                _Wireframe_destructor
                0x0702c3a0                _Wireframe_getObjectSize
                0x0702c3a4                _Wireframe_checkVTable
                0x0702c578                _Wireframe_constructor
                0x0702c58c                _Wireframe_show
                0x0702c5b0                _Wireframe_hide
 .text          0x0702c5d4      0x5b0 build\libvuengine.a(Polyhedron.o)
                0x0702c5d4                _Polyhedron_getBaseClass
                0x0702c5e0                _Polyhedron_getClassName
                0x0702c5ec                _Polyhedron_destructor
                0x0702c640                _Polyhedron_setVTable
                0x0702c6e8                _Polyhedron_draw
                0x0702c8e4                _Polyhedron_getObjectSize
                0x0702c8e8                _Polyhedron_checkVTable
                0x0702cabc                _Polyhedron_new
                0x0702cb00                _Polyhedron_addVertex
 .text          0x0702cb84      0xc24 build\libvuengine.a(DirectDraw.o)
                0x0702cb84                _DirectDraw_getBaseClass
                0x0702cb90                _DirectDraw_getClassName
                0x0702cb9c                _DirectDraw_destructor
                0x0702cbb8                _DirectDraw_setVTable
                0x0702cc6c                _DirectDraw_getObjectSize
                0x0702cc70                _DirectDraw_checkVTable
                0x0702ce8c                _DirectDraw_getInstance
                0x0702ceb4                _DirectDraw_drawPixel
                0x0702cee0                _DirectDraw_drawBlackPixel
                0x0702cf0c                _DirectDraw_drawPoint
                0x0702cfe4                _DirectDraw_drawLine
 .text          0x0702d7a8      0x624 build\libvuengine.a(Sphere.o)
                0x0702d7a8                _Sphere_getBaseClass
                0x0702d7b4                _Sphere_getClassName
                0x0702d7c0                _Sphere_draw
                0x0702da38                _Sphere_destructor
                0x0702da5c                _Sphere_setVTable
                0x0702db04                _Sphere_getObjectSize
                0x0702db0c                _Sphere_checkVTable
                0x0702dce0                _Sphere_new
                0x0702dd78                _Sphere_getCenter
                0x0702dd94                _Sphere_setCenter
                0x0702ddac                _Sphere_getRadius
                0x0702ddb4                _Sphere_setRadius
 .text          0x0702ddcc      0x4b0 build\libvuengine.a(WireframeManager.o)
                0x0702ddcc                _WireframeManager_getBaseClass
                0x0702ddd8                _WireframeManager_getClassName
                0x0702dde4                _WireframeManager_destructor
                0x0702de38                _WireframeManager_setVTable
                0x0702ded0                _WireframeManager_getObjectSize
                0x0702ded4                _WireframeManager_checkVTable
                0x0702e108                _WireframeManager_getInstance
                0x0702e130                _WireframeManager_register
                0x0702e178                _WireframeManager_remove
                0x0702e190                _WireframeManager_reset
                0x0702e1a8                _WireframeManager_drawWireframes
                0x0702e1e8                _WireframeManager_print
 .text          0x0702e27c     0x1168 build\libvuengine.a(HardwareManager.o)
                0x0702e27c                _HardwareManager_getBaseClass
                0x0702e288                _HardwareManager_getClassName
                0x0702e294                _HardwareManager_communicationInterruptHandler
                0x0702e2c8                _HardwareManager_croInterruptHandler
                0x0702e2fc                _HardwareManager_destructor
                0x0702e318                _HardwareManager_setVTable
                0x0702e474                _HardwareManager_getObjectSize
                0x0702e47c                _HardwareManager_checkVTable
                0x0702e698                _HardwareManager_getInstance
                0x0702e6c0                _HardwareManager_checkMemoryMap
                0x0702e970                _HardwareManager_setInterruptVectors
                0x0702e9c4                _HardwareManager_setInterruptLevel
                0x0702e9e0                _HardwareManager_getInterruptLevel
                0x0702e9ec                _HardwareManager_initializeTimer
                0x0702ea04                _HardwareManager_clearScreen
                0x0702ea1c                _HardwareManager_displayOn
                0x0702ea34                _HardwareManager_displayOff
                0x0702ea4c                _HardwareManager_disableRendering
                0x0702ea74                _HardwareManager_enableRendering
                0x0702eaa8                _HardwareManager_upBrightness
                0x0702eac0                _HardwareManager_lowerBrightness
                0x0702ead8                _HardwareManager_setupColumnTable
                0x0702eaf0                _HardwareManager_enableKeypad
                0x0702eb08                _HardwareManager_disableKeypad
                0x0702eb20                _HardwareManager_print
 .text          0x0702f3e4      0x404 build\libvuengine.a(SRAMManager.o)
                0x0702f3e4                _SRAMManager_getBaseClass
                0x0702f3f0                _SRAMManager_getClassName
                0x0702f3fc                _SRAMManager_destructor
                0x0702f418                _SRAMManager_setVTable
                0x0702f4e0                _SRAMManager_getObjectSize
                0x0702f4e4                _SRAMManager_checkVTable
                0x0702f700                _SRAMManager_getInstance
                0x0702f728                _SRAMManager_clear
                0x0702f7a4                _SRAMManager_save
                0x0702f7c8                _SRAMManager_read
 .text          0x0702f7e8      0x5ec build\libvuengine.a(KeyPadManager.o)
                0x0702f7e8                _KeypadManager_getBaseClass
                0x0702f7f4                _KeypadManager_getClassName
                0x0702f800                _KeypadManager_destructor
                0x0702f81c                _KeypadManager_setVTable
                0x0702f930                _KeypadManager_getObjectSize
                0x0702f938                _KeypadManager_checkVTable
                0x0702fb54                _KeypadManager_getInstance
                0x0702fb7c                _KeypadManager_enableInterrupt
                0x0702fba0                _KeypadManager_disableInterrupt
                0x0702fbb4                _KeypadManager_enable
                0x0702fbe8                _KeypadManager_disable
                0x0702fbf0                _KeypadManager_isEnabled
                0x0702fbfc                _KeypadManager_read
                0x0702fcd0                _KeypadManager_getUserInput
                0x0702fcf4                _KeypadManager_flush
                0x0702fd0c                _KeypadManager_getPressedKey
                0x0702fd14                _KeypadManager_getReleasedKey
                0x0702fd1c                _KeypadManager_getHoldKey
                0x0702fd24                _KeypadManager_getHoldKeyDuration
                0x0702fd2c                _KeypadManager_getPreviousKey
                0x0702fd34                _KeypadManager_registerInput
                0x0702fda0                _KeypadManager_interruptHandler
 .text          0x0702fdd4      0x5ec build\libvuengine.a(TimerManager.o)
                0x0702fdd4                _TimerManager_getBaseClass
                0x0702fde0                _TimerManager_getClassName
                0x0702fdec                _TimerManager_destructor
                0x0702fe08                _TimerManager_setVTable
                0x0702fee4                _TimerManager_getObjectSize
                0x0702feec                _TimerManager_checkVTable
                0x07030108                _TimerManager_getInstance
                0x07030130                _TimerManager_initialize
                0x07030194                _TimerManager_enable
                0x070301d4                _TimerManager_interruptHandler
                0x07030278                _TimerManager_getMillisecondsElapsed
                0x07030280                _TimerManager_getTotalMillisecondsElapsed
                0x07030288                _TimerManager_resetMilliseconds
                0x07030294                _TimerManager_setTime
                0x070302b8                _TimerManager_setFrequency
                0x070302d4                _TimerManager_getStat
                0x070302ec                _TimerManager_clearStat
                0x07030304                _TimerManager_wait
                0x07030324                _TimerManager_repeatMethodCall
 .text          0x070303c0      0xbec build\libvuengine.a(VIPManager.o)
                0x070303c0                _VIPManager_getBaseClass
                0x070303cc                _VIPManager_getClassName
                0x070303d8                _VIPManager_destructor
                0x07030414                _VIPManager_setVTable
                0x07030534                _VIPManager_getObjectSize
                0x0703053c                _VIPManager_checkVTable
                0x07030758                _VIPManager_getInstance
                0x07030780                _VIPManager_enableDrawing
                0x070307a0                _VIPManager_disableDrawing
                0x070307b8                _VIPManager_enableInterrupt
                0x070307d0                _VIPManager_disableInterrupts
                0x070307e4                _VIPManager_allowDRAMAccess
                0x070307ec                _VIPManager_isRenderingPending
                0x07030804                _VIPManager_interruptHandler
                0x07030b74                _VIPManager_displayOn
                0x07030b94                _VIPManager_displayOff
                0x07030bb8                _VIPManager_setupPalettes
                0x07030c20                _VIPManager_upBrightness
                0x07030c3c                _VIPManager_lowerBrightness
                0x07030c54                _VIPManager_clearScreen
                0x07030cb4                _VIPManager_clearBgmapSegment
                0x07030cd0                _VIPManager_setupColumnTable
                0x07030d2c                _VIPManager_useInternalColumnTable
                0x07030d54                _VIPManager_setupBrightnessRepeat
                0x07030df4                _VIPManager_setBackgroundColor
                0x07030e08                _VIPManager_pushFrontPostProcessingEffect
                0x07030e84                _VIPManager_pushBackPostProcessingEffect
                0x07030f00                _VIPManager_removePostProcessingEffect
                0x07030f4c                _VIPManager_removePostProcessingEffects
                0x07030f7c                _VIPManager_registerCurrentDrawingFrameBufferSet
                0x07030fa4                _VIPManager_getCurrentDrawingframeBufferSet
 .text          0x07030fac      0x8dc build\libvuengine.a(SoundManager.o)
                0x07030fac                _SoundManager_getBaseClass
                0x07030fb8                _SoundManager_getClassName
                0x07030fc4                _SoundManager_destructor
                0x07030fe0                _SoundManager_setVTable
                0x070310d0                _SoundManager_getObjectSize
                0x070310d8                _SoundManager_checkVTable
                0x070312f4                _SoundManager_getInstance
                0x0703131c                _SoundManager_setWaveForm
                0x0703138c                _SoundManager_playSounds
                0x070316a4                _SoundManager_playBGM
                0x07031700                _SoundManager_playFxSound
                0x07031818                _SoundManager_playingSound
                0x07031830                _SoundManager_stopAllSound
 .text          0x07031888     0x1428 build\libvuengine.a(Shape.o)
                0x07031888                _Shape_getBaseClass
                0x07031894                _Shape_getClassName
                0x07031994                _Shape_canMoveTowards
                0x07031ac8                _Shape_position
                0x07031af4                _Shape_setup
                0x07031b18                _Shape_destructor
                0x07031bec                _Shape_setVTable
                0x07031f00                _Shape_getObjectSize
                0x07031f08                _Shape_checkVTable
                0x070323b0                _Shape_constructor
                0x07032408                _Shape_reset
                0x070324c4                _Shape_enterCollision
                0x07032550                _Shape_exitCollision
                0x07032608                _Shape_resolveCollision
                0x07032710                _Shape_updateCollision
                0x0703275c                _Shape_collides
                0x07032a0c                _Shape_getOwner
                0x07032a14                _Shape_setActive
                0x07032a64                _Shape_isReady
                0x07032a6c                _Shape_setReady
                0x07032a74                _Shape_setCheckForCollisions
                0x07032a7c                _Shape_checkForCollisions
                0x07032a84                _Shape_getCollidingFrictionCoefficient
                0x07032ac8                _Shape_getNumberOfImpenetrableCollidingShapes
                0x07032af8                _Shape_getLayers
                0x07032b00                _Shape_setLayers
                0x07032b08                _Shape_getLayersToIgnore
                0x07032b10                _Shape_setLayersToIgnore
                0x07032b18                _Shape_print
 .text          0x07032cb0      0xbec build\libvuengine.a(CollisionManager.o)
                0x07032cb0                _CollisionManager_getBaseClass
                0x07032cbc                _CollisionManager_getClassName
                0x07032cc8                _CollisionManager_setVTable
                0x07032d60                _CollisionManager_destructor
                0x07032e18                _CollisionManager_getObjectSize
                0x07032e20                _CollisionManager_checkVTable
                0x07032fa4                _CollisionManager_new
                0x07033010                _CollisionManager_constructor
                0x07033058                _CollisionManager_createShape
                0x070330c4                _CollisionManager_destroyShape
                0x07033128                _CollisionManager_update
                0x0703342c                _CollisionManager_reset
                0x070334a0                _CollisionManager_shapeStartedMoving
                0x07033510                _CollisionManager_shapeStoppedMoving
                0x07033528                _CollisionManager_shapeBecameActive
                0x07033570                _CollisionManager_shapeBecameInactive
                0x070335a4                _CollisionManager_showShapes
                0x070335e4                _CollisionManager_hideShapes
                0x07033624                _CollisionManager_print
 .text          0x0703389c     0x1344 build\libvuengine.a(CollisionHelper.o)
                0x0703389c                _CollisionHelper_getBaseClass
                0x070338a8                _CollisionHelper_getClassName
                0x070338b4                _CollisionHelper_destructor
                0x070338d0                _CollisionHelper_setVTable
                0x070340e0                _CollisionHelper_getObjectSize
                0x070340e4                _CollisionHelper_checkVTable
                0x07034304                _CollisionHelper_getInstance
                0x0703432c                _CollisionHelper_checkIfOverlap
 .text          0x07034be0      0xd78 build\libvuengine.a(PhysicalWorld.o)
                0x07034be0                _PhysicalWorld_getBaseClass
                0x07034bec                _PhysicalWorld_getClassName
                0x07034bf8                _PhysicalWorld_destructor
                0x07034c78                _PhysicalWorld_setVTable
                0x07034d10                _PhysicalWorld_getObjectSize
                0x07034d18                _PhysicalWorld_checkVTable
                0x07034e9c                _PhysicalWorld_new
                0x07034f08                _PhysicalWorld_constructor
                0x07034f50                _PhysicalWorld_createBody
                0x07034fcc                _PhysicalWorld_destroyBody
                0x07035040                _PhysicalWorld_getBody
                0x07035068                _PhysicalWorld_update
                0x070356fc                _PhysicalWorld_reset
                0x07035758                _PhysicalWorld_isSpatialObjectRegistered
                0x07035794                _PhysicalWorld_getFrictionCoefficient
                0x0703579c                _PhysicalWorld_setFrictionCoefficient
                0x070357b8                _PhysicalWorld_setTimeScale
                0x070357c0                _PhysicalWorld_getTimeScale
                0x070357c8                _PhysicalWorld_bodyAwake
                0x07035810                _PhysicalWorld_bodySleep
                0x07035828                _PhysicalWorld_bodySetInactive
                0x07035840                _PhysicalWorld_setGravity
                0x07035868                _PhysicalWorld_getGravity
                0x07035870                _PhysicalWorld_getElapsedTime
                0x07035874                _PhysicalWorld_print
 .text          0x07035958      0x65c build\libvuengine.a(InverseBox.o)
                0x07035958                _InverseBox_getBaseClass
                0x07035964                _InverseBox_getClassName
                0x07035970                _InverseBox_destructor
                0x07035984                _InverseBox_setVTable
                0x07035abc                _InverseBox_getObjectSize
                0x07035ac4                _InverseBox_checkVTable
                0x07035f6c                _InverseBox_new
 .text          0x07035fb4     0x26e8 build\libvuengine.a(Body.o)
                0x07035fb4                _Body_getBaseClass
                0x07035fc0                _Body_getClassName
                0x0703616c                _Body_destructor
                0x070361c0                _Body_setVTable
                0x07036268                _Body_getObjectSize
                0x07036270                _Body_checkVTable
                0x07036444                _Body_setCurrentWorldFrictionCoefficient
                0x07036450                _Body_setCurrentElapsedTime
                0x0703645c                _Body_setCurrentGravity
                0x07036468                _Body_constructor
                0x070365a0                _Body_new
                0x07036608                _Body_setOwner
                0x07036610                _Body_getOwner
                0x07036618                _Body_getVelocity
                0x07036634                _Body_getAcceleration
                0x07036650                _Body_getAppliedForce
                0x0703666c                _Body_getMovementType
                0x07036688                _Body_clearAcceleration
                0x070366c0                _Body_moveAccelerated
                0x070366f8                _Body_moveUniformly
                0x0703682c                _Body_clearExternalForce
                0x0703683c                _Body_applyForce
                0x07036988                _Body_applyGravity
                0x07036bec                _Body_addForce
                0x07036d38                _Body_getLastDisplacement
                0x07036e04                _Body_getGravity
                0x07036e84                _Body_updateMovement
                0x07037358                _Body_stopMovement
                0x0703748c                _Body_update
                0x07037500                _Body_getAxesSubjectToGravity
                0x07037508                _Body_setAxesSubjectToGravity
                0x07037510                _Body_setActive
                0x07037540                _Body_isActive
                0x07037548                _Body_getPosition
                0x07037550                _Body_setPosition
                0x07037574                _Body_getElasticity
                0x0703757c                _Body_setElasticity
                0x070375a4                _Body_getNormal
                0x070375c0                _Body_getLastNormalDirection
                0x0703766c                _Body_reset
                0x07037760                _Body_clearNormal
                0x070377b8                _Body_getFrictionCoefficient
                0x070377c0                _Body_setFrictionCoefficient
                0x07037814                _Body_setSurroundingFrictionCoefficient
                0x07037868                _Body_getMass
                0x07037870                _Body_setMass
                0x07037894                _Body_isAwake
                0x070378ac                _Body_sleep
                0x070378e4                _Body_getMovementOnAllAxes
                0x07037938                _Body_bounce
                0x07037dd4                _Body_takeHitFrom
                0x07037dd8                _Body_print
 .text          0x0703869c     0x2194 build\libvuengine.a(Box.o)
                0x0703869c                _Box_getBaseClass
                0x070386a8                _Box_getClassName
                0x070386b4                _Box_getPosition
                0x070386f0                _Box_getSurroundingRightBox
                0x07038714                _Box_hide
                0x07038748                _Box_print
                0x070388f8                _Box_destructor
                0x07038944                _Box_setVTable
                0x07038a7c                _Box_show
                0x07038e68                _Box_getObjectSize
                0x07038e70                _Box_checkVTable
                0x07039318                _Box_new
                0x07039390                _Box_constructor
                0x070393d8                _Box_getVertexes
                0x070395cc                _Box_computeNormals
                0x07039898                _Box_project
                0x07039a44                _Box_projectOntoItself
                0x0703a1c8                _Box_testForCollision
                0x0703a2c8                _Box_position
 .text          0x0703a830      0xb84 build\libvuengine.a(Ball.o)
                0x0703a830                _Ball_getBaseClass
                0x0703a83c                _Ball_getClassName
                0x0703a848                _Ball_position
                0x0703a8ac                _Ball_getPosition
                0x0703a8c8                _Ball_getSurroundingRightBox
                0x0703a918                _Ball_hide
                0x0703a94c                _Ball_print
                0x0703ab90                _Ball_testForCollision
                0x0703ac3c                _Ball_destructor
                0x0703ac78                _Ball_setVTable
                0x0703adb0                _Ball_show
                0x0703ae10                _Ball_getObjectSize
                0x0703ae18                _Ball_checkVTable
                0x0703b2c0                _Ball_new
                0x0703b320                _Ball_constructor
                0x0703b350                _Ball_project
 .text          0x0703b3b4      0x5b4 build\libvuengine.a(UiContainer.o)
                0x0703b3b4                _UiContainer_getBaseClass
                0x0703b3c0                _UiContainer_getClassName
                0x0703b3cc                _UiContainer_initialTransform
                0x0703b48c                _UiContainer_transform
                0x0703b4ec                _UiContainer_addEntities
                0x0703b5b0                _UiContainer_destructor
                0x0703b5c4                _UiContainer_setVTable
                0x0703b818                _UiContainer_getObjectSize
                0x0703b820                _UiContainer_checkVTable
                0x0703b904                _UiContainer_new
 .text          0x0703b968      0x36c build\libvuengine.a(SpatialObject.o)
                0x0703b968                _SpatialObject_getBaseClass
                0x0703b974                _SpatialObject_getClassName
                0x0703b980                _SpatialObject_isMoving
                0x0703b984                _SpatialObject_isSubjectToGravity
                0x0703b98c                _SpatialObject_getWidth
                0x0703b990                _SpatialObject_getHeight
                0x0703b994                _SpatialObject_getDepth
                0x0703b998                _SpatialObject_getPosition
                0x0703b9a4                _SpatialObject_setPosition
                0x0703b9a8                _SpatialObject_getElasticity
                0x0703b9ac                _SpatialObject_getFrictionCoefficient
                0x0703b9b0                _SpatialObject_getVelocity
                0x0703b9c0                _SpatialObject_isAffectedByRelativity
                0x0703b9c4                _SpatialObject_enterCollision
                0x0703b9c8                _SpatialObject_updateCollision
                0x0703b9cc                _SpatialObject_exitCollision
                0x0703b9d0                _SpatialObject_collidingShapeOwnerDestroyed
                0x0703b9d4                _SpatialObject_getMovementState
                0x0703b9d8                _SpatialObject_getShapes
                0x0703b9dc                _SpatialObject_getInGameType
                0x0703b9e0                _SpatialObject_destructor
                0x0703ba0c                _SpatialObject_setVTable
                0x0703bb7c                _SpatialObject_getObjectSize
                0x0703bb80                _SpatialObject_checkVTable
                0x0703bc64                _SpatialObject_new
                0x0703bca0                _SpatialObject_constructor
                0x0703bcb4                _SpatialObject_getRotation
                0x0703bcc0                _SpatialObject_setRotation
                0x0703bcc4                _SpatialObject_getScale
                0x0703bcd0                _SpatialObject_setScale
 .text          0x0703bcd4     0x1e84 build\libvuengine.a(Stage.o)
                0x0703bcd4                _Stage_getBaseClass
                0x0703bce0                _Stage_getClassName
                0x0703bdec                _Stage_transform
                0x0703be4c                _Stage_synchronizeGraphics
                0x0703be6c                _Stage_onFocusEntityDeleted
                0x0703be74                _Stage_handlePropagatedMessage
                0x0703c040                _Stage_suspend
                0x0703c14c                _Stage_update
                0x0703c194                _Stage_removeChild
                0x0703c230                _Stage_setVTable
                0x0703c490                _Stage_stream
                0x0703c624                _Stage_destructor
                0x0703c6f8                _Stage_resume
                0x0703cec4                _Stage_streamAll
                0x0703cf1c                _Stage_getObjectSize
                0x0703cf24                _Stage_checkVTable
                0x0703d008                _Stage_new
                0x0703d094                _Stage_constructor
                0x0703d0fc                _Stage_setupPalettes
                0x0703d128                _Stage_load
                0x0703d708                _Stage_loadPostProcessingEffects
                0x0703d77c                _Stage_getSize
                0x0703d7a8                _Stage_getCameraFrustum
                0x0703d7d0                _Stage_addChildEntity
                0x0703d874                _Stage_registerEntityId
                0x0703d8ac                _Stage_spawnEntity
                0x0703d8d4                _Stage_getUiContainer
                0x0703d8dc                _Stage_getStageDefinition
                0x0703d8e4                _Stage_getParticleRemover
                0x0703d8ec                _Stage_showStreamingProfiling
 .text          0x0703db58      0xdac build\libvuengine.a(EntityFactory.o)
                0x0703db58                _EntityFactory_getBaseClass
                0x0703db64                _EntityFactory_getClassName
                0x0703db70                _EntityFactory_makeReadyEntities
                0x0703dc0c                _EntityFactory_transformEntities
                0x0703dd14                _EntityFactory_initializeEntities
                0x0703de04                _EntityFactory_instantiateEntities
                0x0703dec8                _EntityFactory_destructor
                0x0703e0a0                _EntityFactory_setVTable
                0x0703e138                _EntityFactory_getObjectSize
                0x0703e140                _EntityFactory_checkVTable
                0x0703e2c4                _EntityFactory_new
                0x0703e330                _EntityFactory_spawnEntity
                0x0703e3bc                _EntityFactory_cleanUp
                0x0703e44c                _EntityFactory_prepareEntities
                0x0703e5ac                _EntityFactory_hasEntitiesPending
                0x0703e5f8                _EntityFactory_getPhase
                0x0703e608                _EntityFactory_prepareAllEntities
                0x0703e6f0                _EntityFactory_showStatus
 .text          0x0703e904     0x1b24 build\libvuengine.a(ReflectiveEntity.o)
                0x0703e904                _ReflectiveEntity_getBaseClass
                0x0703e910                _ReflectiveEntity_getClassName
                0x0703e91c                _ReflectiveEntity_synchronizeGraphics
                0x0703e9d0                _ReflectiveEntity_resume
                0x0703ea0c                _ReflectiveEntity_ready
                0x0703ea4c                _ReflectiveEntity_suspend
                0x0703ea88                _ReflectiveEntity_destructor
                0x0703eabc                _ReflectiveEntity_setVTable
                0x0703ed7c                _ReflectiveEntity_getObjectSize
                0x0703ed84                _ReflectiveEntity_checkVTable
                0x0703ee68                _ReflectiveEntity_new
                0x0703ef44                _ReflectiveEntity_constructor
                0x0703efdc                _ReflectiveEntity_shiftPixels
                0x0703f050                _ReflectiveEntity_drawReflection
                0x07040320                _ReflectiveEntity_applyReflection
 .text          0x07040428     0x2b00 build\libvuengine.a(Entity.o)
                0x07040428                _Entity_getBaseClass
                0x07040434                _Entity_getClassName
                0x07040440                _Entity_setDefinition
                0x070407d0                _Entity_setExtraInfo
                0x070409fc                _Entity_synchronizeGraphics
                0x07040a4c                _Entity_getPosition
                0x07040a54                _Entity_getRotation
                0x07040a5c                _Entity_getScale
                0x07040a64                _Entity_handleMessage
                0x07040a68                _Entity_getShapes
                0x07040a70                _Entity_isSubjectToGravity
                0x07040a78                _Entity_getAxisForFlipping
                0x07040a7c                _Entity_getInGameType
                0x07040a88                _Entity_getElasticity
                0x07040aa0                _Entity_getFrictionCoefficient
                0x07040ab8                _Entity_getAxesForShapeSyncWithDirection
                0x07040abc                _Entity_isVisible
                0x070410c0                _Entity_setVTable
                0x07041374                _Entity_initialize
                0x070413c8                _Entity_ready
                0x0704141c                _Entity_hide
                0x070414f4                _Entity_iAmDeletingMyself
                0x07041540                _Entity_suspend
                0x070415bc                _Entity_releaseGraphics
                0x07041638                _Entity_setupGraphics
                0x070416c8                _Entity_destructor
                0x070417a0                _Entity_resume
                0x07041848                _Entity_getObjectSize
                0x07041850                _Entity_checkVTable
                0x07041934                _Entity_new
                0x070419ec                _Entity_constructor
                0x07041a7c                _Entity_getInternalId
                0x07041a84                _Entity_getId
                0x07041a8c                _Entity_getChildById
                0x07041ae4                _Entity_releaseSprites
                0x07041b50                _Entity_calculateSize
                0x07041c68                _Entity_getDepth
                0x07041c90                _Entity_getHeight
                0x07041cb8                _Entity_getWidth
                0x07041ce0                _Entity_getTotalSizeFromDefinition
                0x07041d8c                _Entity_calculateGlobalPositionFromDefinitionByName
                0x07041ea8                _Entity_instantiate
                0x07041f04                _Entity_addChildEntities
                0x07042020                _Entity_loadEntity
                0x070420f8                _Entity_addChildEntitiesDeferred
                0x07042194                _Entity_loadEntityDeferred
                0x070422e0                _Entity_addChildEntity
                0x070423f4                _Entity_areAllChildrenInstantiated
                0x0704241c                _Entity_areAllChildrenInitialized
                0x07042444                _Entity_areAllChildrenTransformed
                0x0704246c                _Entity_areAllChildrenReady
                0x070424d4                _Entity_transformShapes
                0x0704280c                _Entity_setLocalRotation
                0x0704283c                _Entity_setLocalPosition
                0x0704286c                _Entity_transform
                0x070428f8                _Entity_initialTransform
                0x070429cc                _Entity_addSprites
                0x07042a48                _Entity_addSpriteFromDefinitionAtIndex
                0x07042ac4                _Entity_getEntityDefinition
                0x07042acc                _Entity_getSprites
                0x07042ad4                _Entity_updateSpritePosition
                0x07042ae0                _Entity_updateSpriteRotation
                0x07042aec                _Entity_updateSpriteScale
                0x07042af8                _Entity_show
                0x07042bd4                _Entity_informShapesThatStartedMoving
                0x07042c20                _Entity_informShapesThatStoppedMoving
                0x07042c6c                _Entity_activateShapes
                0x07042cb0                _Entity_setDirection
                0x07042d88                _Entity_getDirection
                0x07042e10                _Entity_getShapesLayers
                0x07042e58                _Entity_setShapesLayers
                0x07042e9c                _Entity_getShapesLayersToIgnore
                0x07042ee4                _Entity_setShapesLayersToIgnore
 .text          0x07042f28     0x14d8 build\libvuengine.a(Actor.o)
                0x07042f28                _Actor_getBaseClass
                0x07042f34                _Actor_getClassName
                0x07042f40                _Actor_setDefinition
                0x07042f64                _Actor_resume
                0x07042fb0                _Actor_getElasticityOnCollision
                0x07042fd0                _Actor_getElasticity
                0x0704300c                _Actor_takeHitFrom
                0x07043030                _Actor_initialTransform
                0x0704306c                _Actor_changeEnvironment
                0x070430a8                _Actor_setPosition
                0x07043134                _Actor_setLocalPosition
                0x070431fc                _Actor_isMoving
                0x07043224                _Actor_enterCollision
                0x070432e4                _Actor_update
                0x07043318                _Actor_transform
                0x070433dc                _Actor_iAmDeletingMyself
                0x07043414                _Actor_destructor
                0x0704347c                _Actor_setVTable
                0x0704376c                _Actor_getVelocity
                0x070437b0                _Actor_getPosition
                0x070437e4                _Actor_syncRotationWithBody
                0x07043874                _Actor_syncPositionWithBody
                0x070439ac                _Actor_getMovementState
                0x070439d4                _Actor_getFrictionOnCollision
                0x07043a24                _Actor_collidingShapeOwnerDestroyed
                0x07043abc                _Actor_exitCollision
                0x07043b54                _Actor_isSubjectToGravity
                0x07043c24                _Actor_handleMessage
                0x07043d58                _Actor_getObjectSize
                0x07043d60                _Actor_checkVTable
                0x07043e44                _Actor_new
                0x07043f5c                _Actor_constructor
                0x07044030                _Actor_syncWithBody
                0x0704406c                _Actor_hasChangedDirection
                0x070440ac                _Actor_changeDirectionOnAxis
                0x0704415c                _Actor_canMoveTowards
                0x0704422c                _Actor_getSurroundingFrictionCoefficient
                0x0704427c                _Actor_getStateMachine
                0x07044284                _Actor_stopAllMovement
                0x070442a0                _Actor_stopMovement
                0x070442c0                _Actor_addForce
                0x070443b4                _Actor_moveUniformly
                0x070443f8                _Actor_getBody
 .text          0x07044400      0xfb8 build\libvuengine.a(ManagedEntity.o)
                0x07044400                _ManagedEntity_getBaseClass
                0x0704440c                _ManagedEntity_getClassName
                0x07044418                _ManagedEntity_initialTransform
                0x070444d8                _ManagedEntity_releaseGraphics
                0x07044520                _ManagedEntity_update
                0x07044524                _ManagedEntity_passMessage
                0x07044528                _ManagedEntity_suspend
                0x07044558                _ManagedEntity_destructor
                0x07044594                _ManagedEntity_setVTable
                0x07044848                _ManagedEntity_synchronizeGraphics
                0x07044998                _ManagedEntity_transform
                0x07044e04                _ManagedEntity_resume
                0x07044e34                _ManagedEntity_ready
                0x070451a4                _ManagedEntity_removeChild
                0x070451f0                _ManagedEntity_getObjectSize
                0x070451f8                _ManagedEntity_checkVTable
                0x070452dc                _ManagedEntity_new
                0x07045374                _ManagedEntity_constructor
 .text          0x070453b8     0x299c build\libvuengine.a(Container.o)
                0x070453b8                _Container_getBaseClass
                0x070453c4                _Container_getClassName
                0x070453d0                _Container_iAmDeletingMyself
                0x070453d4                _Container_setupGraphics
                0x07045418                _Container_releaseGraphics
                0x0704545c                _Container_synchronizeGraphics
                0x070454a0                _Container_handlePropagatedMessage
                0x070454a4                _Container_hide
                0x070454ec                _Container_setVTable
                0x07045734                _Container_passMessage
                0x070458a4                _Container_removeChild
                0x07045bd8                _Container_destructor
                0x07045cc8                _Container_transform
                0x07045e7c                _Container_getObjectSize
                0x07045e84                _Container_checkVTable
                0x07045f68                _Container_new
                0x0704603c                _Container_constructor
                0x070460ec                _Container_deleteMyself
                0x07046190                _Container_purgeChildren
                0x07046328                _Container_suspend
                0x07046374                _Container_update
                0x070463cc                _Container_getEnvironmentTransform
                0x0704642c                _Container_concatenateTransform
                0x070464e4                _Container_applyEnvironmentToTransformation
                0x07046594                _Container_transformNonVirtual
                0x07046f9c                _Container_getTransform
                0x07046fa4                _Container_getGlobalPosition
                0x07046fac                _Container_getLocalPosition
                0x07046fb4                _Container_getLocalRotation
                0x07046fbc                _Container_getLocalScale
                0x07046fc4                _Container_invalidateGlobalTransformation
                0x07047158                _Container_show
                0x070471b0                _Container_resume
                0x07047204                _Container_initialTransform
                0x07047364                _Container_addChild
                0x0704742c                _Container_invalidateGlobalPosition
                0x07047614                _Container_invalidateGlobalRotation
                0x070477fc                _Container_setLocalRotation
                0x07047828                _Container_invalidateGlobalScale
                0x07047a10                _Container_setLocalScale
                0x07047a3c                _Container_setLocalPosition
                0x07047aac                _Container_changeEnvironment
                0x07047bc4                _Container_propagateMessage
                0x07047be8                _Container_onPropagatedMessage
                0x07047c10                _Container_getParent
                0x07047c18                _Container_getChildCount
                0x07047c3c                _Container_setName
                0x07047c8c                _Container_getName
                0x07047c94                _Container_getChildByName
                0x07047d4c                _Container_isHidden
 .text          0x07047d54      0x7e4 build\libvuengine.a(AnimatedEntity.o)
                0x07047d54                _AnimatedEntity_getBaseClass
                0x07047d60                _AnimatedEntity_getClassName
                0x07047d6c                _AnimatedEntity_setDefinition
                0x07047d90                _AnimatedEntity_update
                0x07047df8                _AnimatedEntity_destructor
                0x07047e0c                _AnimatedEntity_setVTable
                0x070480c0                _AnimatedEntity_resume
                0x07048128                _AnimatedEntity_ready
                0x0704819c                _AnimatedEntity_getObjectSize
                0x070481a4                _AnimatedEntity_checkVTable
                0x07048288                _AnimatedEntity_new
                0x07048314                _AnimatedEntity_constructor
                0x0704835c                _AnimatedEntity_pauseAnimation
                0x070483a0                _AnimatedEntity_playAnimation
                0x070483fc                _AnimatedEntity_nextFrame
                0x07048434                _AnimatedEntity_previousFrame
                0x0704846c                _AnimatedEntity_isPlayingAnimation
                0x0704848c                _AnimatedEntity_isAnimationLoaded
                0x070484c8                _AnimatedEntity_getAnimationDescription
                0x070484d0                _AnimatedEntity_setAnimationDescription
                0x070484d8                _AnimatedEntity_getActualFrame
                0x07048508                _AnimatedEntity_getNumberOfFrames
 .text          0x07048538      0x598 build\libvuengine.a(ParticleRemover.o)
                0x07048538                _ParticleRemover_getBaseClass
                0x07048544                _ParticleRemover_getClassName
                0x0704857c                _ParticleRemover_setVTable
                0x07048614                _ParticleRemover_destructor
                0x070486d8                _ParticleRemover_getObjectSize
                0x070486e0                _ParticleRemover_checkVTable
                0x07048864                _ParticleRemover_new
                0x070488a0                _ParticleRemover_reset
                0x07048944                _ParticleRemover_update
                0x07048a5c                _ParticleRemover_deleteParticles
                0x07048ac8                _ParticleRemover_setRemovalDelayCycles
 .text          0x07048ad0      0x88c build\libvuengine.a(SolidParticle.o)
                0x07048ad0                _SolidParticle_getBaseClass
                0x07048adc                _SolidParticle_getClassName
                0x07048ae8                _SolidParticle_getWidth
                0x07048af4                _SolidParticle_getHeight
                0x07048b00                _SolidParticle_getDepth
                0x07048b0c                _SolidParticle_setPosition
                0x07048b2c                _SolidParticle_getInGameType
                0x07048b38                _SolidParticle_reset
                0x07048b68                _SolidParticle_exitCollision
                0x07048bb0                _SolidParticle_getVelocity
                0x07048bd4                _SolidParticle_getShapes
                0x07048c20                _SolidParticle_update
                0x07048cc8                _SolidParticle_isSubjectToGravity
                0x07048d58                _SolidParticle_enterCollision
                0x07048e1c                _SolidParticle_destructor
                0x07048e54                _SolidParticle_setVTable
                0x0704900c                _SolidParticle_handleMessage
                0x07049088                _SolidParticle_transform
                0x0704910c                _SolidParticle_getObjectSize
                0x07049114                _SolidParticle_checkVTable
                0x070491f8                _SolidParticle_constructor
                0x070492dc                _SolidParticle_new
                0x07049354                _SolidParticle_getShape
 .text          0x0704935c      0x898 build\libvuengine.a(Particle.o)
                0x0704935c                _Particle_getBaseClass
                0x07049368                _Particle_getClassName
                0x07049374                _Particle_transform
                0x07049378                _Particle_suspend
                0x070493a8                _Particle_reset
                0x070493c0                _Particle_isSubjectToGravity
                0x070493d8                _Particle_getPosition
                0x070493f0                _Particle_setPosition
                0x0704944c                _Particle_destructor
                0x070494a8                _Particle_setVTable
                0x07049660                _Particle_synchronizeGraphics
                0x070496f0                _Particle_update
                0x0704975c                _Particle_resume
                0x070497ec                _Particle_getObjectSize
                0x070497f4                _Particle_checkVTable
                0x070498d8                _Particle_new
                0x070499c8                _Particle_constructor
                0x07049a90                _Particle_addForce
                0x07049b08                _Particle_setLifeSpan
                0x07049b10                _Particle_setMass
                0x07049b2c                _Particle_show
                0x07049b6c                _Particle_hide
                0x07049b98                _Particle_isVisible
 .text          0x07049bf4      0x37c build\libvuengine.a(ParticleBody.o)
                0x07049bf4                _ParticleBody_getBaseClass
                0x07049c00                _ParticleBody_getClassName
                0x07049c0c                _ParticleBody_destructor
                0x07049c20                _ParticleBody_setVTable
                0x07049cc8                _ParticleBody_update
                0x07049d14                _ParticleBody_getObjectSize
                0x07049d1c                _ParticleBody_checkVTable
                0x07049ef0                _ParticleBody_new
                0x07049f58                _ParticleBody_constructor
 .text          0x07049f70     0x11cc build\libvuengine.a(ParticleSystem.o)
                0x07049f70                _ParticleSystem_getBaseClass
                0x07049f7c                _ParticleSystem_getClassName
                0x07049f88                _ParticleSystem_synchronizeGraphics
                0x07049fe8                _ParticleSystem_hide
                0x0704a02c                _ParticleSystem_transform
                0x0704a138                _ParticleSystem_setVTable
                0x0704a5f4                _ParticleSystem_resume
                0x0704a8d8                _ParticleSystem_update
                0x0704aab0                _ParticleSystem_destructor
                0x0704ac34                _ParticleSystem_suspend
                0x0704ad44                _ParticleSystem_getObjectSize
                0x0704ad4c                _ParticleSystem_checkVTable
                0x0704ae30                _ParticleSystem_constructor
                0x0704af68                _ParticleSystem_new
                0x0704afe4                _ParticleSystem_spawnAllParticles
                0x0704b0a0                _ParticleSystem_handleMessage
                0x0704b0a4                _ParticleSystem_show
                0x0704b0e8                _ParticleSystem_start
                0x0704b134                _ParticleSystem_pause
 .text          0x0704b13c      0x724 build\libvuengine.a(DebugState.o)
                0x0704b13c                _DebugState_getBaseClass
                0x0704b148                _DebugState_getClassName
                0x0704b154                _DebugState_processUserInput
                0x0704b180                _DebugState_setVTable
                0x0704b398                _DebugState_getObjectSize
                0x0704b3a0                _DebugState_checkVTable
                0x0704b838                _DebugState_getInstance
 .text          0x0704b860      0x724 build\libvuengine.a(StageEditorState.o)
                0x0704b860                _StageEditorState_getBaseClass
                0x0704b86c                _StageEditorState_getClassName
                0x0704b878                _StageEditorState_processUserInput
                0x0704b8a4                _StageEditorState_setVTable
                0x0704babc                _StageEditorState_getObjectSize
                0x0704bac4                _StageEditorState_checkVTable
                0x0704bf5c                _StageEditorState_getInstance
 .text          0x0704bf84      0xe04 build\libvuengine.a(GameState.o)
                0x0704bf84                _GameState_getBaseClass
                0x0704bf90                _GameState_getClassName
                0x0704bf9c                _GameState_processUserInput
                0x0704bfa0                _GameState_transform
                0x0704bff8                _GameState_processMessage
                0x0704c02c                _GameState_resume
                0x0704c208                _GameState_destructor
                0x0704c2b0                _GameState_setVTable
                0x0704c3c8                _GameState_suspend
                0x0704c46c                _GameState_execute
                0x0704c4d8                _GameState_exit
                0x0704c540                _GameState_enter
                0x0704c5a8                _GameState_getObjectSize
                0x0704c5b0                _GameState_checkVTable
                0x0704c9b0                _GameState_constructor
                0x0704ca0c                _GameState_propagateMessage
                0x0704ca30                _GameState_stream
                0x0704ca54                _GameState_synchronizeGraphics
                0x0704ca78                _GameState_updatePhysics
                0x0704ca94                _GameState_processCollisions
                0x0704cab0                _GameState_loadStage
                0x0704cbe0                _GameState_getStage
                0x0704cbe8                _GameState_getMessagingClock
                0x0704cbf0                _GameState_getUpdateClock
                0x0704cbf8                _GameState_getPhysicsClock
                0x0704cc00                _GameState_startClocks
                0x0704cc3c                _GameState_stopClocks
                0x0704cc6c                _GameState_pauseClocks
                0x0704cca4                _GameState_resumeClocks
                0x0704ccdc                _GameState_startDispatchingDelayedMessages
                0x0704ccf4                _GameState_startAnimations
                0x0704cd0c                _GameState_startPhysics
                0x0704cd24                _GameState_pauseMessagingClock
                0x0704cd40                _GameState_pauseAnimations
                0x0704cd5c                _GameState_pausePhysics
                0x0704cd78                _GameState_getPhysicalWorld
                0x0704cd80                _GameState_getCollisionManager
 .text          0x0704cd88      0x724 build\libvuengine.a(AnimationInspectorState.o)
                0x0704cd88                _AnimationInspectorState_getBaseClass
                0x0704cd94                _AnimationInspectorState_getClassName
                0x0704cda0                _AnimationInspectorState_processUserInput
                0x0704cdcc                _AnimationInspectorState_setVTable
                0x0704cfe4                _AnimationInspectorState_getObjectSize
                0x0704cfec                _AnimationInspectorState_checkVTable
                0x0704d484                _AnimationInspectorState_getInstance
 .text          0x0704d4ac     0x1af4 build\libvuengine.a(StageEditor.o)
                0x0704d4ac                _StageEditor_getBaseClass
                0x0704d4b8                _StageEditor_getClassName
                0x0704d96c                _StageEditor_destructor
                0x0704d9ac                _StageEditor_setVTable
                0x0704e4d8                _StageEditor_getObjectSize
                0x0704e4e0                _StageEditor_checkVTable
                0x0704e6fc                _StageEditor_getInstance
                0x0704e724                _StageEditor_update
                0x0704e728                _StageEditor_show
                0x0704e758                _StageEditor_hide
                0x0704e7e4                _StageEditor_processUserInput
 .text          0x0704efa0      0xdf8 build\libvuengine.a(OptionsSelector.o)
                0x0704efa0                _OptionsSelector_getBaseClass
                0x0704efac                _OptionsSelector_getClassName
                0x0704efb8                _OptionsSelector_setVTable
                0x0704f050                _OptionsSelector_destructor
                0x0704f394                _OptionsSelector_getObjectSize
                0x0704f39c                _OptionsSelector_checkVTable
                0x0704f520                _OptionsSelector_new
                0x0704f5ec                _OptionsSelector_constructor
                0x0704f694                _OptionsSelector_setMarkCharacter
                0x0704f69c                _OptionsSelector_setColumnWidth
                0x0704f6f4                _OptionsSelector_getWidth
                0x0704f700                _OptionsSelector_setOptions
                0x0704f85c                _OptionsSelector_selectNext
                0x0704fa68                _OptionsSelector_selectPrevious
                0x0704fc8c                _OptionsSelector_setSelectedOption
                0x0704fd04                _OptionsSelector_getSelectedOption
                0x0704fd0c                _OptionsSelector_printOptions
                0x0704fd60                _OptionsSelector_doCurrentSelectionCallback
                0x0704fd90                _OptionsSelector_getNumberOfOptions
 .text          0x0704fd98     0x3108 build\libvuengine.a(Debug.o)
                0x0704fd98                _Debug_getObjectSize
                0x0704fda0                _Debug_getBaseClass
                0x0704fdac                _Debug_getClassName
                0x0704fe08                _Debug_destructor
                0x070504fc                _Debug_setVTable
                0x0705273c                _Debug_checkVTable
                0x07052958                _Debug_getInstance
                0x07052980                _Debug_update
                0x070529a0                _Debug_render
                0x07052a04                _Debug_show
                0x07052a9c                _Debug_hide
                0x07052b10                _Debug_getCurrentPageNumber
                0x07052b30                _Debug_processUserInput
 .text          0x07052ea0     0x1814 build\libvuengine.a(AnimationInspector.o)
                0x07052ea0                _AnimationInspector_getBaseClass
                0x07052eac                _AnimationInspector_getClassName
                0x07053bb4                _AnimationInspector_destructor
                0x07053c58                _AnimationInspector_setVTable
                0x07053d6c                _AnimationInspector_getObjectSize
                0x07053d74                _AnimationInspector_checkVTable
                0x07053f90                _AnimationInspector_getInstance
                0x07053fb8                _AnimationInspector_update
                0x07054014                _AnimationInspector_show
                0x07054104                _AnimationInspector_hide
                0x070541f0                _AnimationInspector_processUserInput
 .text          0x070546b4        0x0 build\libvuengine.a(ColumnTable.o)
 .text          0x070546b4        0x0 build\libvuengine.a(VUEngineFontDefinition.o)
 .text          0x070546b4       0x68 build\libvuengine.a(Optics.o)
                0x070546b4                _Optics_calculateParallax
 .text          0x0705471c      0x23c build\libvuengine.a(Affine.o)
                0x0705471c                _Affine_applyAll
 .text          0x07054958        0x0 build\libvuengine.a(VUEngineFont.o)
 .text          0x07054958      0x41c c:/vbde/system/msys32/v810/v810-win32/bin/../lib/gcc/v810/4.7.4\libgcc.a(_divdi3.o)
                0x07054958                ___divdi3
 .text          0x07054d74       0x54 c:/vbde/system/msys32/v810/v810-win32/bin/../lib/gcc/v810/4.7.4\libgcc.a(_lt_sf.o)
                0x07054d74                ___ltsf2
 .text          0x07054dc8        0x0 c:/vbde/system/msys32/v810/v810-win32/bin/../lib/gcc/v810/4.7.4\libgcc.a(_clz.o)
 .text          0x07054dc8       0xb8 c:/vbde/system/msys32/v810/v810-win32/bin/../lib/gcc/v810/4.7.4\libgcc.a(_unpack_sf.o)
                0x07054dc8                ___unpack_f
 .text          0x07054e80       0xb4 c:/vbde/system/msys32/v810/v810-win32/bin/../lib/gcc/v810/4.7.4\libgcc.a(_fpcmp_parts_sf.o)
                0x07054e80                ___fpcmp_parts_f
 .text          0x07054f34       0x94 c:/vbde/system/msys32/v810/v810-win32/bin/../lib/gcc/v810/4.7.4/../../../../v810/lib\libc.a(lib_a-strcmp.o)
                0x07054f34                _strcmp
 .text          0x07054fc8       0x7c c:/vbde/system/msys32/v810/v810-win32/bin/../lib/gcc/v810/4.7.4/../../../../v810/lib\libc.a(lib_a-strcpy.o)
                0x07054fc8                _strcpy
 .text          0x07055044       0x64 c:/vbde/system/msys32/v810/v810-win32/bin/../lib/gcc/v810/4.7.4/../../../../v810/lib\libc.a(lib_a-strlen.o)
                0x07055044                _strlen
 .text          0x070550a8       0xd8 c:/vbde/system/msys32/v810/v810-win32/bin/../lib/gcc/v810/4.7.4/../../../../v810/lib\libc.a(lib_a-strncmp.o)
                0x070550a8                _strncmp
 .text          0x07055180       0x88 c:/vbde/system/msys32/v810/v810-win32/bin/../lib/gcc/v810/4.7.4/../../../../v810/lib\libc.a(lib_a-strncpy.o)
                0x07055180                _strncpy
 .text          0x07055208       0x34 c:/vbde/system/msys32/v810/v810-win32/bin/../lib/gcc/v810/4.7.4/../../../../v810/lib\libc.a(lib_a-strnlen.o)
                0x07055208                _strnlen

.rodata         0x0705523c    0x2d118
 *(.rodata*)
 .rodata        0x0705523c       0x54 build/tools/./source/globals.o
                0x07055240                __userAnimatedEntities
                0x07055248                __userObjects
                0x07055250                __userClassesSizeData
                0x07055258                _MANAGED_ENTITY
                0x07055274                _SIMPLE_CONTAINER
 .rodata        0x07055290       0xbe build/tools/./source/components/ProgressManager.o
 *fill*         0x0705534e        0x2 ff
 .rodata        0x07055350      0x4b0 build/tools/./source/components/PostProcessingEffects.o
 .rodata        0x07055800       0x40 build/tools/./source/components/HbiasEffects.o
 .rodata        0x07055840       0xa9 build/tools/./source/components/EventManager.o
 .rodata        0x070558e9      0x114 build/tools/./source/components/CustomCameraEffectManager.o
 .rodata        0x070559fd       0x90 build/tools/./source/components/CameraTriggerEntity.o
 .rodata        0x07055a8d      0x11e build/tools/./source/components/CustomCameraMovementManager.o
 *fill*         0x07055bab        0x1 ff
 .rodata        0x07055bac       0xd6 build/tools/./source/components/graphics/HbiasMaskMBgmapSprite.o
 .rodata        0x07055c82       0x72 build/tools/./source/components/graphics/GUISprite.o
 .rodata        0x07055cf4       0x92 build/tools/./source/objects/actors/Hero/Hero.o
 .rodata        0x07055d86       0x72 build/tools/./source/objects/actors/Hero/states/HeroState.o
 .rodata        0x07055df8       0xa6 build/tools/./source/objects/actors/Hero/states/HeroMoving.o
 .rodata        0x07055e9e       0x9e build/tools/./source/objects/actors/Hero/states/HeroIdle.o
 .rodata        0x07055f3c       0x7b build/tools/./source/objects/actors/MovingEntity/MovingEntity.o
 *fill*         0x07055fb7        0x1 ff
 .rodata        0x07055fb8       0x7e build/tools/./source/objects/elements/Collision/Collision.o
                0x0705602a                _collision_64_2_8
                0x07056030                _collision_2_28_8
 *fill*         0x07056036        0x2 ff
 .rodata        0x07056038       0x24 build/tools/./source/objects/elements/Collision/CollisionDefinition.o
                0x07056038                _COLLISION_CL
                0x07056054                _COLLISION_CL_PHYSICAL_PROPERTIES
 .rodata        0x0705605c       0x6f build/tools/./source/objects/elements/Door/Door.o
 .rodata        0x070560cb       0x84 build/tools/./source/objects/elements/Door/LayerSwitchDoor.o
 .rodata        0x0705614f       0x74 build/tools/./source/objects/elements/Door/GoalDoor.o
 .rodata        0x070561c3       0x80 build/tools/./source/objects/elements/Door/KeyDoor.o
 .rodata        0x07056243       0x80 build/tools/./source/objects/elements/Gui/Gui.o
 .rodata        0x070562c3       0x78 build/tools/./source/objects/items/Collectable/Collectable.o
 .rodata        0x0705633b       0x63 build/tools/./source/objects/items/Item/Item.o
 .rodata        0x0705639e       0xd3 build/tools/./source/states/AutoPauseScreenState/AutoPauseScreenState.o
 .rodata        0x07056471       0xd7 build/tools/./source/states/LevelDoneScreenState/LevelDoneScreenState.o
 .rodata        0x07056548       0xcf build/tools/./source/states/OptionsScreenState/OptionsScreenState.o
 .rodata        0x07056617       0xf8 build/tools/./source/states/PauseScreenState/PauseScreenState.o
 .rodata        0x0705670f      0x10c build/tools/./source/states/PlatformerLevelState/PlatformerLevelState.o
 .rodata        0x0705681b       0xcd build/tools/./source/states/SplashScreens/AdjustmentScreenState/AdjustmentScreenState.o
 .rodata        0x070568e8      0x162 build/tools/./source/states/SplashScreens/AutoPauseSelectScreenState/AutoPauseSelectScreenState.o
 .rodata        0x07056a4a       0xd7 build/tools/./source/states/SplashScreens/LangSelectScreenState/LangSelectScreenState.o
 .rodata        0x07056b21       0xd7 build/tools/./source/states/SplashScreens/PrecautionScreenState/PrecautionScreenState.o
 .rodata        0x07056bf8       0x8a build/tools/./source/states/SplashScreens/SplashScreenState/SplashScreenState.o
 .rodata        0x07056c82       0xb9 build/tools/./source/states/TitleScreenState/TitleScreenState.o
 .rodata        0x07056d3b      0x114 build/tools/./assets/data/ColumnTable.o
                0x07056d3b                _EDGE_FADE_OUT_VERY_WIDE_BRIGHTNESS_REPEAT
                0x07056d6c                _EDGE_FADE_OUT_WIDE_BRIGHTNESS_REPEAT
                0x07056d9d                _EDGE_FADE_OUT_BRIGHTNESS_REPEAT
                0x07056dce                _SQUARE_SCREEN_TEST_COLUMN_TABLE
 *fill*         0x07056e4f        0x1 ff
 .rodata        0x07056e50        0x8 build/tools/./assets/fonts/Fonts.o
                0x07056e50                ___FONTS
 .rodata        0x07056e58       0xa4 build/tools/./assets/images/AdjustmentScreen/Binary/AdjustmentScreenVUEngineIcon.o
                0x07056e58                _AdjustmentScreenVUEngineIconMap
                0x07056e6c                _AdjustmentScreenVUEngineIconTiles
 .rodata        0x07056efc      0x728 build/tools/./assets/images/AdjustmentScreen/Binary/AdjustmentScreenVUEngineLogo.o
                0x07056efc                _AdjustmentScreenVUEngineLogoMap
                0x07057184                _AdjustmentScreenVUEngineLogoTiles
 .rodata        0x07057624     0x1ea0 build/tools/./assets/images/AdjustmentScreen/Binary/AdjustmentScreenVUEngineBG.o
                0x07057624                _AdjustmentScreenVUEngineBGMap
                0x070580a4                _AdjustmentScreenVUEngineBGTiles
 .rodata        0x070594c4       0x70 build/tools/./assets/images/AdjustmentScreen/Definition/AdjustmentScreenVUEngineBGDefinition.o
                0x070594c4                _ADJUSTMENT_SCREEN_VUENGINE_BG_IM
                0x070594e0                _ADJUSTMENT_SCREEN_VUENGINE_BG_IM_SPRITES
                0x070594e8                _ADJUSTMENT_SCREEN_VUENGINE_BG_IM_SPRITE
                0x07059508                _ADJUSTMENT_SCREEN_VUENGINE_BG_TX
                0x07059528                _ADJUSTMENT_SCREEN_VUENGINE_BG_CH
 .rodata        0x07059534       0xb4 build/tools/./assets/images/AdjustmentScreen/Definition/AdjustmentScreenVUEngineIconDefinition.o
                0x07059534                _ADJUSTMENT_SCREEN_VUENGINE_ICON_IM_R
                0x07059550                _ADJUSTMENT_SCREEN_VUENGINE_ICON_IM_L
                0x0705956c                _ADJUSTMENT_SCREEN_VUENGINE_ICON_IM_R_SPRITES
                0x07059574                _ADJUSTMENT_SCREEN_VUENGINE_ICON_IM_R_SPRITE
                0x07059594                _ADJUSTMENT_SCREEN_VUENGINE_ICON_IM_L_SPRITES
                0x0705959c                _ADJUSTMENT_SCREEN_VUENGINE_ICON_IM_L_SPRITE
                0x070595bc                _ADJUSTMENT_SCREEN_VUENGINE_ICON_TX
                0x070595dc                _ADJUSTMENT_SCREEN_VUENGINE_ICON_CH
 .rodata        0x070595e8       0x70 build/tools/./assets/images/AdjustmentScreen/Definition/AdjustmentScreenVUEngineLogoDefinition.o
                0x070595e8                _ADJUSTMENT_SCREEN_VUENGINE_LOGO_IM
                0x07059604                _ADJUSTMENT_SCREEN_VUENGINE_LOGO_IM_SPRITES
                0x0705960c                _ADJUSTMENT_SCREEN_VUENGINE_LOGO_IM_SPRITE
                0x0705962c                _ADJUSTMENT_SCREEN_VUENGINE_LOGO_TX
                0x0705964c                _ADJUSTMENT_SCREEN_VUENGINE_LOGO_CH
 .rodata        0x07059658     0x1c58 build/tools/./assets/images/Buildings/Binary/Barberia1.o
                0x07059658                _Barberia1Map
                0x07059b80                _Barberia1Tiles
 .rodata        0x0705b2b0      0x888 build/tools/./assets/images/Buildings/Binary/House5Black.o
                0x0705b2b0                _House5BlackMap
                0x0705ba08                _House5BlackTiles
 .rodata        0x0705bb38     0x3020 build/tools/./assets/images/Buildings/Binary/House4.o
                0x0705bb38                _House4Map
                0x0705c538                _House4Tiles
 .rodata        0x0705eb58      0x720 build/tools/./assets/images/Buildings/Binary/House1Black.o
                0x0705eb58                _House1BlackMap
                0x0705f008                _House1BlackTiles
 .rodata        0x0705f278     0x1ab8 build/tools/./assets/images/Buildings/Binary/House2.o
                0x0705f278                _House2Map
                0x0705f6b0                _House2Tiles
 .rodata        0x07060d30      0xd10 build/tools/./assets/images/Buildings/Binary/Wall1.o
                0x07060d30                _Wall1Map
                0x07060f60                _Wall1Tiles
 .rodata        0x07061a40     0x21c8 build/tools/./assets/images/Buildings/Binary/House5.o
                0x07061a40                _House5Map
                0x07062198                _House5Tiles
 .rodata        0x07063c08      0x1d0 build/tools/./assets/images/Buildings/Binary/House6Black.o
                0x07063c08                _House6BlackMap
                0x07063ce8                _House6BlackTiles
 .rodata        0x07063dd8     0x1d40 build/tools/./assets/images/Buildings/Binary/House1.o
                0x07063dd8                _House1Map
                0x07064288                _House1Tiles
 .rodata        0x07065b18     0x13c0 build/tools/./assets/images/Buildings/Binary/House3.o
                0x07065b18                _House3Map
                0x07065ed8                _House3Tiles
 .rodata        0x07066ed8      0x4a0 build/tools/./assets/images/Buildings/Binary/House3Black.o
                0x07066ed8                _House3BlackMap
                0x07067298                _House3BlackTiles
 .rodata        0x07067378      0x328 build/tools/./assets/images/Buildings/Binary/Garage1Black.o
                0x07067378                _Garage1BlackMap
                0x070675e0                _Garage1BlackTiles
 .rodata        0x070676a0      0x918 build/tools/./assets/images/Buildings/Binary/Barberia1Black.o
                0x070676a0                _Barberia1BlackMap
                0x07067bc8                _Barberia1BlackTiles
 .rodata        0x07067fb8      0xac0 build/tools/./assets/images/Buildings/Binary/House4Black.o
                0x07067fb8                _House4BlackMap
                0x070689b8                _House4BlackTiles
 .rodata        0x07068a78      0x94c build/tools/./assets/images/Buildings/Binary/Garage2.o
                0x07068a78                _Garage2Map
                0x07068c94                _Garage2Tiles
 .rodata        0x070693c4      0x554 build/tools/./assets/images/Buildings/Binary/Playground1.o
                0x070693c4                _Playground1Map
                0x070694c8                _Playground1Tiles
 .rodata        0x07069918      0xc78 build/tools/./assets/images/Buildings/Binary/Garage1.o
                0x07069918                _Garage1Map
                0x07069b80                _Garage1Tiles
 .rodata        0x0706a590      0x668 build/tools/./assets/images/Buildings/Binary/House2Black.o
                0x0706a590                _House2BlackMap
                0x0706a9c8                _House2BlackTiles
 .rodata        0x0706abf8      0x520 build/tools/./assets/images/Buildings/Binary/House6.o
                0x0706abf8                _House6Map
                0x0706acd8                _House6Tiles
 .rodata        0x0706b118      0x380 build/tools/./assets/images/Buildings/Binary/Wall1Black.o
                0x0706b118                _Wall1BlackMap
                0x0706b348                _Wall1BlackTiles
 .rodata        0x0706b498       0xc0 build/tools/./assets/images/Buildings/Definition/House4Definition.o
                0x0706b498                _HOUSE_4_IM
                0x0706b4b4                _HOUSE_4_SPRITES
                0x0706b4c0                _HOUSE_4_BLACK_SPRITE
                0x0706b4e0                _HOUSE_4_SPRITE
                0x0706b500                _HOUSE_4_BLACK_TX
                0x0706b520                _HOUSE_4_TX
                0x0706b540                _HOUSE_4_BLACK_CH
                0x0706b54c                _HOUSE_4_CH
 .rodata        0x0706b558       0xc0 build/tools/./assets/images/Buildings/Definition/House6Definition.o
                0x0706b558                _HOUSE_6_IM
                0x0706b574                _HOUSE_6_SPRITES
                0x0706b580                _HOUSE_6_BLACK_SPRITE
                0x0706b5a0                _HOUSE_6_SPRITE
                0x0706b5c0                _HOUSE_6_BLACK_TX
                0x0706b5e0                _HOUSE_6_TX
                0x0706b600                _HOUSE_6_BLACK_CH
                0x0706b60c                _HOUSE_6_CH
 .rodata        0x0706b618       0x70 build/tools/./assets/images/Buildings/Definition/Garage2Definition.o
                0x0706b618                _GARAGE_2_IM
                0x0706b634                _GARAGE_2_SPRITES
                0x0706b63c                _GARAGE_2_SPRITE
                0x0706b65c                _GARAGE_2_TX
                0x0706b67c                _GARAGE_2_CH
 .rodata        0x0706b688       0x70 build/tools/./assets/images/Buildings/Definition/Playground1Definition.o
                0x0706b688                _PLAYGROUND_1_IM
                0x0706b6a4                _PLAYGROUND_1_SPRITES
                0x0706b6ac                _PLAYGROUND_1_SPRITE
                0x0706b6cc                _PLAYGROUND_1_TX
                0x0706b6ec                _PLAYGROUND_1_CH
 .rodata        0x0706b6f8       0xc0 build/tools/./assets/images/Buildings/Definition/Wall1Definition.o
                0x0706b6f8                _WALL_1_IM
                0x0706b714                _WALL_1_SPRITES
                0x0706b720                _WALL_1_BLACK_SPRITE
                0x0706b740                _WALL_1_SPRITE
                0x0706b760                _WALL_1_BLACK_TX
                0x0706b780                _WALL_1_TX
                0x0706b7a0                _WALL_1_BLACK_CH
                0x0706b7ac                _WALL_1_CH
 .rodata        0x0706b7b8       0xc0 build/tools/./assets/images/Buildings/Definition/House2Definition.o
                0x0706b7b8                _HOUSE_2_IM
                0x0706b7d4                _HOUSE_2_SPRITES
                0x0706b7e0                _HOUSE_2_BLACK_SPRITE
                0x0706b800                _HOUSE_2_SPRITE
                0x0706b820                _HOUSE_2_BLACK_TX
                0x0706b840                _HOUSE_2_TX
                0x0706b860                _HOUSE_2_BLACK_CH
                0x0706b86c                _HOUSE_2_CH
 .rodata        0x0706b878       0xc0 build/tools/./assets/images/Buildings/Definition/Garage1Definition.o
                0x0706b878                _GARAGE_1_IM
                0x0706b894                _GARAGE_1_SPRITES
                0x0706b8a0                _GARAGE_1_BLACK_SPRITE
                0x0706b8c0                _GARAGE_1_SPRITE
                0x0706b8e0                _GARAGE_1_BLACK_TX
                0x0706b900                _GARAGE_1_TX
                0x0706b920                _GARAGE_1_BLACK_CH
                0x0706b92c                _GARAGE_1_CH
 .rodata        0x0706b938       0xc0 build/tools/./assets/images/Buildings/Definition/House3Definition.o
                0x0706b938                _HOUSE_3_IM
                0x0706b954                _HOUSE_3_SPRITES
                0x0706b960                _HOUSE_3_BLACK_SPRITE
                0x0706b980                _HOUSE_3_SPRITE
                0x0706b9a0                _HOUSE_3_BLACK_TX
                0x0706b9c0                _HOUSE_3_TX
                0x0706b9e0                _HOUSE_3_BLACK_CH
                0x0706b9ec                _HOUSE_3_CH
 .rodata        0x0706b9f8       0xc0 build/tools/./assets/images/Buildings/Definition/House1Definition.o
                0x0706b9f8                _HOUSE_1_IM
                0x0706ba14                _HOUSE_1_SPRITES
                0x0706ba20                _HOUSE_1_BLACK_SPRITE
                0x0706ba40                _HOUSE_1_SPRITE
                0x0706ba60                _HOUSE_1_BLACK_TX
                0x0706ba80                _HOUSE_1_TX
                0x0706baa0                _HOUSE_1_BLACK_CH
                0x0706baac                _HOUSE_1_CH
 .rodata        0x0706bab8       0xc0 build/tools/./assets/images/Buildings/Definition/Barberia1Definition.o
                0x0706bab8                _BARBERIA_1_IM
                0x0706bad4                _BARBERIA_1_SPRITES
                0x0706bae0                _BARBERIA_1_BLACK_SPRITE
                0x0706bb00                _BARBERIA_1_SPRITE
                0x0706bb20                _BARBERIA_1_BLACK_TX
                0x0706bb40                _BARBERIA_1_TX
                0x0706bb60                _BARBERIA_1_BLACK_CH
                0x0706bb6c                _BARBERIA_1_CH
 .rodata        0x0706bb78       0xc0 build/tools/./assets/images/Buildings/Definition/House5Definition.o
                0x0706bb78                _HOUSE_5_IM
                0x0706bb94                _HOUSE_5_SPRITES
                0x0706bba0                _HOUSE_5_BLACK_SPRITE
                0x0706bbc0                _HOUSE_5_SPRITE
                0x0706bbe0                _HOUSE_5_BLACK_TX
                0x0706bc00                _HOUSE_5_TX
                0x0706bc20                _HOUSE_5_BLACK_CH
                0x0706bc2c                _HOUSE_5_CH
 .rodata        0x0706bc38      0xac0 build/tools/./assets/images/CityBackground/Binary/CityBackgroundB.o
                0x0706bc38                _CityBackgroundBMap
                0x0706c1b8                _CityBackgroundBTiles
 .rodata        0x0706c6f8      0xc20 build/tools/./assets/images/CityBackground/Binary/CityBackgroundA.o
                0x0706c6f8                _CityBackgroundAMap
                0x0706cc78                _CityBackgroundATiles
 .rodata        0x0706d318       0xb8 build/tools/./assets/images/CityBackground/Definition/CityBgDefinition.o
                0x0706d318                _CITY_BG_IM
                0x0706d334                _CITY_BG_SB_SPRITES
                0x0706d33c                _CITY_BG_SB_SPRITE
                0x0706d36c                _CITY_BG_SB_TEXTURES
                0x0706d378                _CITY_BG_B_TX
                0x0706d398                _CITY_BG_A_TX
                0x0706d3b8                _CITY_BG_B_CH
                0x0706d3c4                _CITY_BG_A_CH
 .rodata        0x0706d3d0       0xb0 build/tools/./assets/images/CityFloor/Binary/CityFloor.o
                0x0706d3d0                _CityFloorMap
                0x0706d450                _CityFloorTiles
 .rodata        0x0706d480       0x88 build/tools/./assets/images/CityFloor/Definition/CityFloorDefinition.o
                0x0706d480                _CITY_FLOOR_IM
                0x0706d49c                _CITY_FLOOR_SB_SPRITES
                0x0706d4a4                _CITY_FLOOR_SB_SPRITE
                0x0706d4d4                _CITY_FLOOR_SB_TEXTURES
                0x0706d4dc                _CITY_FLOOR_TX
                0x0706d4fc                _CITY_FLOOR_CH
 .rodata        0x0706d508      0x694 build/tools/./assets/images/Decoration/Binary/PlaygroundSign1.o
                0x0706d508                _PlaygroundSign1Map
                0x0706d6ac                _PlaygroundSign1Tiles
 .rodata        0x0706db9c      0x120 build/tools/./assets/images/Decoration/Binary/Bike1.o
                0x0706db9c                _Bike1Map
                0x0706dbbc                _Bike1Tiles
 .rodata        0x0706dcbc      0x2e0 build/tools/./assets/images/Decoration/Binary/BushBg1.o
                0x0706dcbc                _BushBg1Map
                0x0706dd6c                _BushBg1Tiles
 .rodata        0x0706df9c      0x190 build/tools/./assets/images/Decoration/Binary/Lantern1.o
                0x0706df9c                _Lantern1Map
                0x0706dfec                _Lantern1Tiles
 .rodata        0x0706e12c      0x440 build/tools/./assets/images/Decoration/Binary/TreeBg1.o
                0x0706e12c                _TreeBg1Map
                0x0706e1dc                _TreeBg1Tiles
 .rodata        0x0706e56c      0x190 build/tools/./assets/images/Decoration/Binary/Motorbike1.o
                0x0706e56c                _Motorbike1Map
                0x0706e59c                _Motorbike1Tiles
 .rodata        0x0706e6fc      0x264 build/tools/./assets/images/Decoration/Binary/CarBg1.o
                0x0706e6fc                _CarBg1Map
                0x0706e750                _CarBg1Tiles
 .rodata        0x0706e960      0x1d0 build/tools/./assets/images/Decoration/Binary/Bench1.o
                0x0706e960                _Bench1Map
                0x0706e9a0                _Bench1Tiles
 .rodata        0x0706eb30      0x20c build/tools/./assets/images/Decoration/Binary/TrashBin1.o
                0x0706eb30                _TrashBin1Map
                0x0706eb6c                _TrashBin1Tiles
 .rodata        0x0706ed3c      0x3a4 build/tools/./assets/images/Decoration/Binary/PlaygroundSign1Black.o
                0x0706ed3c                _PlaygroundSign1BlackMap
                0x0706eee0                _PlaygroundSign1BlackTiles
 .rodata        0x0706f0e0      0xdd8 build/tools/./assets/images/Decoration/Binary/Fence2.o
                0x0706f0e0                _Fence2Map
                0x0706f2a8                _Fence2Tiles
 .rodata        0x0706feb8      0x40c build/tools/./assets/images/Decoration/Binary/BushBg2.o
                0x0706feb8                _BushBg2Map
                0x07070034                _BushBg2Tiles
 .rodata        0x070702c4      0x360 build/tools/./assets/images/Decoration/Binary/Car1.o
                0x070702c4                _Car1Map
                0x07070344                _Car1Tiles
 .rodata        0x07070624      0x3c0 build/tools/./assets/images/Decoration/Binary/Clothes1.o
                0x07070624                _Clothes1Map
                0x070706f4                _Clothes1Tiles
 .rodata        0x070709e4      0x100 build/tools/./assets/images/Decoration/Binary/Container1.o
                0x070709e4                _Container1Map
                0x07070a04                _Container1Tiles
 .rodata        0x07070ae4      0x278 build/tools/./assets/images/Decoration/Binary/Fence1.o
                0x07070ae4                _Fence1Map
                0x07070b2c                _Fence1Tiles
 .rodata        0x07070d5c      0x110 build/tools/./assets/images/Decoration/Binary/Lantern1Black.o
                0x07070d5c                _Lantern1BlackMap
                0x07070dac                _Lantern1BlackTiles
 .rodata        0x07070e6c      0x5a4 build/tools/./assets/images/Decoration/Binary/Statue1.o
                0x07070e6c                _Statue1Map
                0x07070f70                _Statue1Tiles
 .rodata        0x07071410      0x1c0 build/tools/./assets/images/Decoration/Binary/Thing1.o
                0x07071410                _Thing1Map
                0x07071440                _Thing1Tiles
 .rodata        0x070715d0      0x550 build/tools/./assets/images/Decoration/Binary/Tree1.o
                0x070715d0                _Tree1Map
                0x070716c0                _Tree1Tiles
 .rodata        0x07071b20       0x70 build/tools/./assets/images/Decoration/Definition/Thing1Definition.o
                0x07071b20                _THING_1_IM
                0x07071b3c                _THING_1_SPRITES
                0x07071b44                _THING_1_SPRITE
                0x07071b64                _THING_1_TX
                0x07071b84                _THING_1_CH
 .rodata        0x07071b90       0x70 build/tools/./assets/images/Decoration/Definition/Tree1Definition.o
                0x07071b90                _TREE_1_IM
                0x07071bac                _TREE_1_IM_SPRITES
                0x07071bb4                _TREE_1_IM_SPRITE
                0x07071bd4                _TREE_1_TX
                0x07071bf4                _TREE_1_CH
 .rodata        0x07071c00       0x70 build/tools/./assets/images/Decoration/Definition/Clothes1Definition.o
                0x07071c00                _CLOTHES_1_IM
                0x07071c1c                _CLOTHES_1_IM_SPRITES
                0x07071c24                _CLOTHES_1_IM_SPRITE
                0x07071c44                _CLOTHES_1_TX
                0x07071c64                _CLOTHES_1_CH
 .rodata        0x07071c70       0x70 build/tools/./assets/images/Decoration/Definition/Container1Definition.o
                0x07071c70                _CONTAINER_1_IM
                0x07071c8c                _CONTAINER_1_SPRITES
                0x07071c94                _CONTAINER_1_SPRITE
                0x07071cb4                _CONTAINER_1_TX
                0x07071cd4                _CONTAINER_1_CH
 .rodata        0x07071ce0       0x70 build/tools/./assets/images/Decoration/Definition/Statue1Definition.o
                0x07071ce0                _STATUE_1_IM
                0x07071cfc                _STATUE_1_SPRITES
                0x07071d04                _STATUE_1_SPRITE
                0x07071d24                _STATUE_1_TX
                0x07071d44                _STATUE_1_CH
 .rodata        0x07071d50       0x70 build/tools/./assets/images/Decoration/Definition/Bike1Definition.o
                0x07071d50                _BIKE_1_IM
                0x07071d6c                _BIKE_1_IM_SPRITES
                0x07071d74                _BIKE_1_IM_SPRITE
                0x07071d94                _BIKE_1_TX
                0x07071db4                _BIKE_1_CH
 .rodata        0x07071dc0       0xc0 build/tools/./assets/images/Decoration/Definition/PlaygroundSign1Definition.o
                0x07071dc0                _PLAYGROUND_SIGN_1_IM
                0x07071ddc                _PLAYGROUND_SIGN_1_SPRITES
                0x07071de8                _PLAYGROUND_SIGN_1_BLACK_SPRITE
                0x07071e08                _PLAYGROUND_SIGN_1_SPRITE
                0x07071e28                _PLAYGROUND_SIGN_1_BLACK_TX
                0x07071e48                _PLAYGROUND_SIGN_1_TX
                0x07071e68                _PLAYGROUND_SIGN_1_BLACK_CH
                0x07071e74                _PLAYGROUND_SIGN_1_CH
 .rodata        0x07071e80       0x70 build/tools/./assets/images/Decoration/Definition/Fence2Definition.o
                0x07071e80                _FENCE_2_IM
                0x07071e9c                _FENCE_2_SPRITES
                0x07071ea4                _FENCE_2_SPRITE
                0x07071ec4                _FENCE_2_TX
                0x07071ee4                _FENCE_2_CH
 .rodata        0x07071ef0       0x70 build/tools/./assets/images/Decoration/Definition/BushBg1Definition.o
                0x07071ef0                _BUSH_BG_1_IM
                0x07071f0c                _BUSH_BG_1_IM_SPRITES
                0x07071f14                _BUSH_BG_1_IM_SPRITE
                0x07071f34                _BUSH_BG_1_TX
                0x07071f54                _BUSH_BG_1_CH
 .rodata        0x07071f60       0x70 build/tools/./assets/images/Decoration/Definition/Fence1Definition.o
                0x07071f60                _FENCE_1_IM
                0x07071f7c                _FENCE_1_SPRITES
                0x07071f84                _FENCE_1_SPRITE
                0x07071fa4                _FENCE_1_TX
                0x07071fc4                _FENCE_1_CH
 .rodata        0x07071fd0       0xc0 build/tools/./assets/images/Decoration/Definition/Lantern1Definition.o
                0x07071fd0                _LANTERN_1_IM
                0x07071fec                _LANTERN_1_SPRITES
                0x07071ff8                _LANTERN_1_BLACK_SPRITE
                0x07072018                _LANTERN_1_SPRITE
                0x07072038                _LANTERN_1_BLACK_TX
                0x07072058                _LANTERN_1_TX
                0x07072078                _LANTERN_1_BLACK_CH
                0x07072084                _LANTERN_1_CH
 .rodata        0x07072090       0x70 build/tools/./assets/images/Decoration/Definition/TrashBin1Definition.o
                0x07072090                _TRASH_BIN_1_IM
                0x070720ac                _TRASH_BIN_1_SPRITES
                0x070720b4                _TRASH_BIN_1_SPRITE
                0x070720d4                _TRASH_BIN_1_TX
                0x070720f4                _TRASH_BIN_1_CH
 .rodata        0x07072100       0x70 build/tools/./assets/images/Decoration/Definition/BushBg2Definition.o
                0x07072100                _BUSH_BG_2_IM
                0x0707211c                _BUSH_BG_2_IM_SPRITES
                0x07072124                _BUSH_BG_2_IM_SPRITE
                0x07072144                _BUSH_BG_2_TX
                0x07072164                _BUSH_BG_2_CH
 .rodata        0x07072170       0x70 build/tools/./assets/images/Decoration/Definition/Bench1Definition.o
                0x07072170                _BENCH_1_IM
                0x0707218c                _BENCH_1_IM_SPRITES
                0x07072194                _BENCH_1_IM_SPRITE
                0x070721b4                _BENCH_1_TX
                0x070721d4                _BENCH_1_CH
 .rodata        0x070721e0       0x70 build/tools/./assets/images/Decoration/Definition/TreeBg1Definition.o
                0x070721e0                _TREE_BG_1_IM
                0x070721fc                _TREE_BG_1_IM_SPRITES
                0x07072204                _TREE_BG_1_IM_SPRITE
                0x07072224                _TREE_BG_1_TX
                0x07072244                _TREE_BG_1_CH
 .rodata        0x07072250       0x70 build/tools/./assets/images/Decoration/Definition/Motorbike1Definition.o
                0x07072250                _MOTORBIKE_1_IM
                0x0707226c                _MOTORBIKE_1_SPRITES
                0x07072274                _MOTORBIKE_1_SPRITE
                0x07072294                _MOTORBIKE_1_TX
                0x070722b4                _MOTORBIKE_1_CH
 .rodata        0x070722c0       0x70 build/tools/./assets/images/Decoration/Definition/Car1Definition.o
                0x070722c0                _CAR_1_IM
                0x070722dc                _CAR_1_IM_SPRITES
                0x070722e4                _CAR_1_IM_SPRITE
                0x07072304                _CAR_1_TX
                0x07072324                _CAR_1_CH
 .rodata        0x07072330       0x70 build/tools/./assets/images/Decoration/Definition/CarBg1Definition.o
                0x07072330                _CAR_BG_1_IM
                0x0707234c                _CAR_BG_1_IM_SPRITES
                0x07072354                _CAR_BG_1_IM_SPRITE
                0x07072374                _CAR_BG_1_TX
                0x07072394                _CAR_BG_1_CH
 .rodata        0x070723a0     0x1000 build/tools/./assets/images/Fonts/Binary/FontDefault.o
                0x070723a0                _FontDefaultTiles
 .rodata        0x070733a0       0x28 build/tools/./assets/images/Fonts/Definition/FontDefaultDefinition.o
                0x070733a0                _PLATFORMER_DEFAULT_FONT
                0x070733bc                _PLATFORMER_DEFAULT_FONT_CH
 .rodata        0x070733c8      0x530 build/tools/./assets/images/Gui/Binary/Gui.o
                0x070733c8                _GuiMap
                0x070735a8                _GuiTiles
 .rodata        0x070738f8       0x70 build/tools/./assets/images/Gui/Definition/GuiDefinition.o
                0x070738f8                _GUI_IM
                0x07073914                _GUI_IM_SPRITES
                0x0707391c                _GUI_IM_SPRITE
                0x0707393c                _GUI_TX
                0x0707395c                _GUI_CH
 .rodata        0x07073968      0xd90 build/tools/./assets/images/Hero/Binary/HeroBlack.o
                0x07073968                _HeroBlackMap
                0x07073ae8                _HeroBlackTiles
 .rodata        0x070746f8      0xd90 build/tools/./assets/images/Hero/Binary/Hero.o
                0x070746f8                _HeroMap
                0x07074878                _HeroTiles
 .rodata        0x07075488      0x4b8 build/tools/./assets/images/Hero/Definition/HeroDefinition.o
                0x07075488                _CAMERA_BOUNDING_BOX_IG
                0x070754a4                _CAMERA_BOUNDING_BOX_IG_SHAPES
                0x070754fc                _HERO_AC
                0x07075524                _HERO_PHYSICAL_PROPERTIES
                0x0707552c                _HERO_AC_SHAPES
                0x0707557c                _HERO_AFFINE_SPRITES
                0x07075588                _HERO_BLACK_AFFINE_SPRITE
                0x070755a8                _HERO_AFFINE_SPRITE
                0x070755c8                _HERO_BLACK_TX
                0x070755e8                _HERO_TX
                0x07075608                _HERO_BLACK_CH
                0x07075614                _HERO_CH
                0x07075620                _HERO_ANIM
                0x070756a0                _HERO_DEAD_ANIM
                0x07075700                _HERO_HIT_ANIM
                0x07075760                _HERO_SLIDING_ANIM
                0x070757c0                _HERO_FALLING_ANIM
                0x07075820                _HERO_JUMPING_ANIM
                0x07075880                _HERO_WALKING_ANIM
                0x070758e0                _HERO_IDLE_ANIM
 .rodata        0x07075940      0x7d4 build/tools/./assets/images/TitleScreen/Binary/TitleCapitanBlack.o
                0x07075940                _TitleCapitanBlackMap
                0x07075c84                _TitleCapitanBlackTiles
 .rodata        0x07076114      0x6c4 build/tools/./assets/images/TitleScreen/Binary/TitleEarth.o
                0x07076114                _TitleEarthMap
                0x07076268                _TitleEarthTiles
 .rodata        0x070767d8      0xed0 build/tools/./assets/images/TitleScreen/Binary/TitleLogo.o
                0x070767d8                _TitleLogoMap
                0x070769e8                _TitleLogoTiles
 .rodata        0x070776a8      0xfd4 build/tools/./assets/images/TitleScreen/Binary/TitleCapitan.o
                0x070776a8                _TitleCapitanMap
                0x070779ec                _TitleCapitanTiles
 .rodata        0x0707867c      0x340 build/tools/./assets/images/TitleScreen/Binary/TitleSubTitle.o
                0x0707867c                _TitleSubTitleMap
                0x070786dc                _TitleSubTitleTiles
 .rodata        0x070789bc      0xa80 build/tools/./assets/images/TitleScreen/Binary/TitleLogoBlack.o
                0x070789bc                _TitleLogoBlackMap
                0x07078bcc                _TitleLogoBlackTiles
 .rodata        0x0707943c       0x70 build/tools/./assets/images/TitleScreen/Definition/TitleEarthDefinition.o
                0x0707943c                _TITLE_EARTH_IM
                0x07079458                _TITLE_EARTH_SPRITES
                0x07079460                _TITLE_EARTH_SPRITE
                0x07079480                _TITLE_EARTH_TX
                0x070794a0                _TITLE_EARTH_CH
 .rodata        0x070794ac       0x70 build/tools/./assets/images/TitleScreen/Definition/TitleSubTitleDefinition.o
                0x070794ac                _TITLE_SUBTITLE_IM
                0x070794c8                _TITLE_SUBTITLE_SPRITES
                0x070794d0                _TITLE_SUBTITLE_SPRITE
                0x070794f0                _TITLE_SUBTITLE_TX
                0x07079510                _TITLE_SUBTITLE_CH
 .rodata        0x0707951c       0xc0 build/tools/./assets/images/TitleScreen/Definition/TitleCapitanDefinition.o
                0x0707951c                _TITLE_CAPITAN_IM
                0x07079538                _TITLE_CAPITAN_SPRITES
                0x07079544                _TITLE_CAPITAN_BLACK_SPRITE
                0x07079564                _TITLE_CAPITAN_SPRITE
                0x07079584                _TITLE_CAPITAN_BLACK_TX
                0x070795a4                _TITLE_CAPITAN_TX
                0x070795c4                _TITLE_CAPITAN_BLACK_CH
                0x070795d0                _TITLE_CAPITAN_CH
 .rodata        0x070795dc       0xc0 build/tools/./assets/images/TitleScreen/Definition/TitleLogoDefinition.o
                0x070795dc                _TITLE_LOGO_IM
                0x070795f8                _TITLE_LOGO_SPRITES
                0x07079604                _TITLE_LOGO_BLACK_SPRITE
                0x07079624                _TITLE_LOGO_SPRITE
                0x07079644                _TITLE_LOGO_BLACK_TX
                0x07079664                _TITLE_LOGO_TX
                0x07079684                _TITLE_LOGO_BLACK_CH
                0x07079690                _TITLE_LOGO_CH
 .rodata        0x0707969c      0x2c0 build/tools/./assets/languages/Language_DE.o
                0x0707969c                _LANGUAGE_DE
                0x070798e8                _LANGUAGE_DE_STRINGS
 .rodata        0x0707995c      0x2e0 build/tools/./assets/languages/Language_ES.o
                0x0707995c                _LANGUAGE_ES
                0x07079bc8                _LANGUAGE_ES_STRINGS
 .rodata        0x07079c3c       0x14 build/tools/./assets/languages/Languages.o
                0x07079c3c                ___LANGUAGES
 .rodata        0x07079c50      0x2c8 build/tools/./assets/languages/Language_FR.o
                0x07079c50                _LANGUAGE_FR
                0x07079ea4                _LANGUAGE_FR_STRINGS
 .rodata        0x07079f18      0x280 build/tools/./assets/languages/Language_EN.o
                0x07079f18                _LANGUAGE_EN
                0x0707a124                _LANGUAGE_EN_STRINGS
 .rodata        0x0707a198       0x18 build/tools/./assets/levels/Level1Definition.o
                0x0707a19c                _LEVEL_1_LV
 .rodata        0x0707a1b0       0x3e build/tools/./assets/sounds/CollectDefinition.o
                0x0707a1b0                _COLLECT_SND
 .rodata        0x0707a1ee      0x11c build/tools/./assets/sounds/BGM1Definition.o
                0x0707a1ee                _WORLD_0_0_0_BGM
 .rodata        0x0707a30a        0xe build/tools/./assets/sounds/JumpDefinition.o
                0x0707a30a                _JUMP_SND
 .rodata        0x0707a318       0x30 build/tools/./assets/sounds/FireDefinition.o
                0x0707a318                _FIRE_SND
 .rodata        0x0707a348      0x11c build/tools/./assets/sounds/BGM2Definition.o
                0x0707a348                _KRISSE_BGM
 .rodata        0x0707a464      0x6c0 build/tools/./assets/stages/Level1/Definition/Level1MainStageDefinition.o
                0x0707a46c                _LEVEL_1_MAIN_MAIN_EP
                0x0707a480                _LEVEL_1_MAIN_STAGE_ST
                0x0707a510                _LEVEL_1_MAIN_STAGE_ST_POST_PROCESSING_EFFECTS
                0x0707a514                _LEVEL_1_MAIN_STAGE_ST_TEXTURES
                0x0707a518                _LEVEL_1_MAIN_STAGE_ST_CHARSETS
                0x0707a51c                _LEVEL_1_MAIN_STAGE_ST_FONTS
                0x0707a524                _LEVEL_1_MAIN_STAGE_ST_UI_CHILDREN
                0x0707a564                _LEVEL_1_MAIN_STAGE_ST_CHILDREN
 .rodata        0x0707ab24      0x158 build/tools/./assets/stages/Various/Definition/TitleScreenStageDefinition.o
                0x0707ab24                _TITLE_SCREEN_STAGE_ST
                0x0707abb4                _TITLE_SCREEN_STAGE_ST_FONTS
                0x0707abbc                _TITLE_SCREEN_STAGE_ST_UI_ENTITIES
                0x0707abdc                _TITLE_SCREEN_STAGE_ST_ENTITIES
 .rodata        0x0707ac7c       0xd8 build/tools/./assets/stages/Various/Definition/EmptyStageDefinition.o
                0x0707ac7c                _EMPTY_STAGE_ST
                0x0707ad0c                _EMPTY_STAGE_ST_FONTS
                0x0707ad14                _EMPTY_STAGE_ST_UI_ENTITIES
                0x0707ad34                _EMPTY_STAGE_ST_ENTITIES
 .rodata        0x0707ad54      0x198 build/tools/./assets/stages/Various/Definition/AdjustmentScreenStageDefinition.o
                0x0707ad54                _ADJUSTMENT_SCREEN_STAGE_ST
                0x0707ade4                _ADJUSTMENT_SCREEN_STAGE_ST_FONTS
                0x0707adec                _ADJUSTMENT_SCREEN_STAGE_ST_UI_ENTITIES
                0x0707ae0c                _ADJUSTMENT_SCREEN_STAGE_ST_ENTITIES
 .rodata        0x0707aeec       0xd8 build/tools/./assets/stages/Various/Definition/PauseScreenStageDefinition.o
                0x0707aeec                _PAUSE_SCREEN_STAGE_ST
                0x0707af7c                _PAUSE_SCREEN_STAGE_ST_FONTS
                0x0707af84                _PAUSE_SCREEN_STAGE_ST_UI_ENTITIES
                0x0707afa4                _PAUSE_SCREEN_STAGE_ST_ENTITIES
 .rodata        0x0707afc4      0x50c build\libvuengine.a(Game.o)
 .rodata.cst4   0x0707b4d0        0x4 build\libvuengine.a(Game.o)
 .rodata        0x0707b4d4      0x1c2 build\libvuengine.a(Error.o)
 .rodata        0x0707b696       0xa7 build\libvuengine.a(FrameRate.o)
 .rodata        0x0707b73d       0x89 build\libvuengine.a(I18n.o)
 .rodata        0x0707b7c6       0x78 build\libvuengine.a(VirtualNode.o)
 .rodata        0x0707b83e       0x78 build\libvuengine.a(VirtualList.o)
 .rodata        0x0707b8b6       0x66 build\libvuengine.a(State.o)
 .rodata        0x0707b91c       0x66 build\libvuengine.a(Clock.o)
 .rodata        0x0707b982       0x89 build\libvuengine.a(Object.o)
 .rodata        0x0707ba0b      0x173 build\libvuengine.a(MemoryPool.o)
 *fill*         0x0707bb7e        0x2 ff
 .rodata.cst4   0x0707bb80       0x3c build\libvuengine.a(MemoryPool.o)
 .rodata        0x0707bbbc       0xa9 build\libvuengine.a(ClockManager.o)
 .rodata        0x0707bc65      0x10c build\libvuengine.a(MessageDispatcher.o)
 .rodata        0x0707bd71       0x6f build\libvuengine.a(Telegram.o)
 .rodata        0x0707bde0       0x7b build\libvuengine.a(StateMachine.o)
 .rodata        0x0707be5b       0x11 build\libvuengine.a(Utilities.o)
 .rodata        0x0707be6c      0x101 build\libvuengine.a(CameraEffectManager.o)
 .rodata        0x0707bf6d       0xcd build\libvuengine.a(CameraMovementManager.o)
 .rodata        0x0707c03a       0x91 build\libvuengine.a(Camera.o)
 *fill*         0x0707c0cb        0x1 ff
 .rodata        0x0707c0cc       0xa8 build\libvuengine.a(Printing.o)
                0x0707c16c                _VUENGINE_DEBUG_FONT_DATA
 .rodata        0x0707c174      0x19a build\libvuengine.a(SpriteManager.o)
 .rodata        0x0707c30e      0x288 build\libvuengine.a(Sprite.o)
 .rodata        0x0707c596       0x93 build\libvuengine.a(AnimationCoordinator.o)
 .rodata        0x0707c629       0x90 build\libvuengine.a(AnimationController.o)
 .rodata        0x0707c6b9       0xe5 build\libvuengine.a(AnimationCoordinatorFactory.o)
 .rodata        0x0707c79e      0x478 build\libvuengine.a(BgmapSprite.o)
 .rodata        0x0707cc16      0x1ab build\libvuengine.a(ParamTableManager.o)
 .rodata        0x0707cdc1       0xa2 build\libvuengine.a(BgmapAnimationCoordinator.o)
 .rodata        0x0707ce63       0xb1 build\libvuengine.a(MBgmapSprite.o)
 .rodata        0x0707cf14       0x90 build\libvuengine.a(BgmapAnimatedSprite.o)
 .rodata        0x0707cfa4      0x1dc build\libvuengine.a(ObjectSpriteContainer.o)
 .rodata        0x0707d180       0x93 build\libvuengine.a(ObjectAnimatedSprite.o)
 .rodata        0x0707d213      0x1fb build\libvuengine.a(ObjectSpriteContainerManager.o)
 .rodata        0x0707d40e       0x7b build\libvuengine.a(ObjectSprite.o)
 .rodata        0x0707d489       0xa5 build\libvuengine.a(ObjectAnimationCoordinator.o)
 .rodata        0x0707d52e       0xa2 build\libvuengine.a(Texture.o)
 .rodata        0x0707d5d0      0x209 build\libvuengine.a(BgmapTextureManager.o)
 .rodata        0x0707d7d9       0xa5 build\libvuengine.a(BgmapTexture.o)
 .rodata        0x0707d87e      0x20f build\libvuengine.a(CharSetManager.o)
 .rodata        0x0707da8d       0x6c build\libvuengine.a(CharSet.o)
 .rodata        0x0707daf9       0x7e build\libvuengine.a(ObjectTexture.o)
 .rodata        0x0707db77       0x72 build\libvuengine.a(Wireframe.o)
 .rodata        0x0707dbe9       0x75 build\libvuengine.a(Polyhedron.o)
 .rodata        0x0707dc5e       0xa1 build\libvuengine.a(DirectDraw.o)
 .rodata        0x0707dcff       0x69 build\libvuengine.a(Sphere.o)
 .rodata        0x0707dd68       0xdd build\libvuengine.a(WireframeManager.o)
 .rodata        0x0707de45      0x290 build\libvuengine.a(HardwareManager.o)
 .rodata        0x0707e0d5       0xa5 build\libvuengine.a(SRAMManager.o)
 .rodata        0x0707e17a       0xbb build\libvuengine.a(KeyPadManager.o)
 .rodata        0x0707e235       0xa9 build\libvuengine.a(TimerManager.o)
 .rodata        0x0707e2de       0xc9 build\libvuengine.a(VIPManager.o)
 *fill*         0x0707e3a7        0x1 ff
 .rodata.cst4   0x0707e3a8        0x4 build\libvuengine.a(VIPManager.o)
 .rodata        0x0707e3ac      0x14c build\libvuengine.a(SoundManager.o)
 .rodata        0x0707e4f8       0xc8 build\libvuengine.a(Shape.o)
 .rodata        0x0707e5c0      0x199 build\libvuengine.a(CollisionManager.o)
 *fill*         0x0707e759        0x1 ff
 .rodata        0x0707e75a       0xc8 build\libvuengine.a(CollisionHelper.o)
 .rodata        0x0707e822       0xee build\libvuengine.a(PhysicalWorld.o)
 .rodata        0x0707e910       0x75 build\libvuengine.a(InverseBox.o)
 .rodata        0x0707e985      0x1ad build\libvuengine.a(Body.o)
 *fill*         0x0707eb32        0x2 ff
 .rodata.cst4   0x0707eb34        0x4 build\libvuengine.a(Body.o)
 .rodata        0x0707eb38      0x46c build\libvuengine.a(Box.o)
 .rodata        0x0707efa4       0x7a build\libvuengine.a(Ball.o)
 .rodata        0x0707f01e       0x78 build\libvuengine.a(UiContainer.o)
 .rodata        0x0707f096       0x7e build\libvuengine.a(SpatialObject.o)
 .rodata        0x0707f114      0x164 build\libvuengine.a(Stage.o)
                0x0707f24a                _neutralEnvironmentTransformation
 .rodata.cst4   0x0707f278        0x4 build\libvuengine.a(Stage.o)
 .rodata        0x0707f27c      0x120 build\libvuengine.a(EntityFactory.o)
 .rodata        0x0707f39c       0x87 build\libvuengine.a(ReflectiveEntity.o)
 .rodata        0x0707f423       0x69 build\libvuengine.a(Entity.o)
 .rodata        0x0707f48c       0x66 build\libvuengine.a(Actor.o)
 .rodata        0x0707f4f2       0x7e build\libvuengine.a(ManagedEntity.o)
 .rodata        0x0707f570      0x144 build\libvuengine.a(Container.o)
 .rodata        0x0707f6b4       0x81 build\libvuengine.a(AnimatedEntity.o)
 .rodata        0x0707f735       0x84 build\libvuengine.a(ParticleRemover.o)
 .rodata        0x0707f7b9       0x7e build\libvuengine.a(SolidParticle.o)
 .rodata        0x0707f837       0x95 build\libvuengine.a(Particle.o)
 .rodata        0x0707f8cc       0x7b build\libvuengine.a(ParticleBody.o)
 .rodata        0x0707f947       0x81 build\libvuengine.a(ParticleSystem.o)
 .rodata        0x0707f9c8       0xa1 build\libvuengine.a(DebugState.o)
 .rodata        0x0707fa69       0xb9 build\libvuengine.a(StageEditorState.o)
 .rodata        0x0707fb22       0x92 build\libvuengine.a(GameState.o)
 .rodata        0x0707fbb4       0xd5 build\libvuengine.a(AnimationInspectorState.o)
 .rodata        0x0707fc89      0x3b4 build\libvuengine.a(StageEditor.o)
 .rodata        0x0708003d       0x88 build\libvuengine.a(OptionsSelector.o)
 *fill*         0x070800c5        0x3 ff
 .rodata        0x070800c8      0x9b4 build\libvuengine.a(Debug.o)
 .rodata.cst4   0x07080a7c        0x8 build\libvuengine.a(Debug.o)
 .rodata        0x07080a84      0x2f4 build\libvuengine.a(AnimationInspector.o)
 .rodata        0x07080d78       0xb2 build\libvuengine.a(ColumnTable.o)
                0x07080d78                _DEFAULT_BRIGHTNESS_REPEAT
                0x07080da9                _DEFAULT_COLUMN_TABLE
 *fill*         0x07080e2a        0x2 ff
 .rodata        0x07080e2c       0x28 build\libvuengine.a(VUEngineFontDefinition.o)
                0x07080e2c                _VUENGINE_FONT
                0x07080e48                _VUENGINE_FONT_CH
 .rodata        0x07080e54      0x400 build\libvuengine.a(Affine.o)
 .rodata        0x07081254     0x1000 build\libvuengine.a(VUEngineFont.o)
                0x07081254                _VUEngineFontTiles
 .rodata        0x07082254      0x100 c:/vbde/system/msys32/v810/v810-win32/bin/../lib/gcc/v810/4.7.4\libgcc.a(_clz.o)
                0x07082254                ___clz_tab
                0x07082354                v = .
                0x07082354                __data_lma = .

.data           0x05000000      0x14e load address 0x07082354
                0x05000000                PROVIDE (__data_start, .)
 *(.data*)
 .data          0x05000000        0x0 build/tools/./source/globals.o
 .data          0x05000000        0x0 build/tools/./source/game.o
 .data          0x05000000        0x0 build/tools/./source/components/ProgressManager.o
 .data          0x05000000        0x0 build/tools/./source/components/AffineTransformations.o
 .data          0x05000000      0x12c build/tools/./source/components/PostProcessingEffects.o
 .data          0x0500012c        0x0 build/tools/./source/components/HbiasEffects.o
 .data          0x0500012c        0x0 build/tools/./source/components/EventManager.o
 .data          0x0500012c        0xc build/tools/./source/components/CustomCameraEffectManager.o
                0x0500012c                _SCREEN_PULSATE_STEPS
 .data          0x05000138        0x0 build/tools/./source/components/CameraTriggerEntity.o
 .data          0x05000138        0x0 build/tools/./source/components/CustomCameraMovementManager.o
 .data          0x05000138        0x0 build/tools/./source/components/graphics/HbiasMaskMBgmapSprite.o
 .data          0x05000138        0x0 build/tools/./source/components/graphics/GUISprite.o
 .data          0x05000138        0x0 build/tools/./source/objects/actors/Hero/Hero.o
 .data          0x05000138        0x0 build/tools/./source/objects/actors/Hero/states/HeroState.o
 .data          0x05000138        0x0 build/tools/./source/objects/actors/Hero/states/HeroMoving.o
 .data          0x05000138        0x0 build/tools/./source/objects/actors/Hero/states/HeroIdle.o
 .data          0x05000138        0x0 build/tools/./source/objects/actors/MovingEntity/MovingEntity.o
 .data          0x05000138        0x0 build/tools/./source/objects/elements/Collision/Collision.o
 .data          0x05000138        0x0 build/tools/./source/objects/elements/Collision/CollisionDefinition.o
 .data          0x05000138        0x0 build/tools/./source/objects/elements/Door/Door.o
 .data          0x05000138        0x0 build/tools/./source/objects/elements/Door/LayerSwitchDoor.o
 .data          0x05000138        0x0 build/tools/./source/objects/elements/Door/GoalDoor.o
 .data          0x05000138        0x0 build/tools/./source/objects/elements/Door/KeyDoor.o
 .data          0x05000138        0x0 build/tools/./source/objects/elements/Gui/Gui.o
 .data          0x05000138        0x0 build/tools/./source/objects/items/Collectable/Collectable.o
 .data          0x05000138        0x0 build/tools/./source/objects/items/Item/Item.o
 .data          0x05000138        0x0 build/tools/./source/states/AutoPauseScreenState/AutoPauseScreenState.o
 .data          0x05000138        0x0 build/tools/./source/states/LevelDoneScreenState/LevelDoneScreenState.o
 .data          0x05000138        0x0 build/tools/./source/states/OptionsScreenState/OptionsScreenState.o
 .data          0x05000138        0x0 build/tools/./source/states/PauseScreenState/PauseScreenState.o
 .data          0x05000138        0x0 build/tools/./source/states/PlatformerLevelState/PlatformerLevelState.o
 .data          0x05000138        0x4 build/tools/./source/states/SplashScreens/AdjustmentScreenState/AdjustmentScreenState.o
 .data          0x0500013c        0x0 build/tools/./source/states/SplashScreens/AutoPauseSelectScreenState/AutoPauseSelectScreenState.o
 .data          0x0500013c        0x0 build/tools/./source/states/SplashScreens/LangSelectScreenState/LangSelectScreenState.o
 .data          0x0500013c        0x0 build/tools/./source/states/SplashScreens/PrecautionScreenState/PrecautionScreenState.o
 .data          0x0500013c        0x0 build/tools/./source/states/SplashScreens/SplashScreenState/SplashScreenState.o
 .data          0x0500013c        0x0 build/tools/./source/states/TitleScreenState/TitleScreenState.o
 .data          0x0500013c        0x0 build/tools/./assets/data/ColumnTable.o
 .data          0x0500013c        0x0 build/tools/./assets/fonts/Fonts.o
 .data          0x0500013c        0x0 build/tools/./assets/images/AdjustmentScreen/Binary/AdjustmentScreenVUEngineIcon.o
 .data          0x0500013c        0x0 build/tools/./assets/images/AdjustmentScreen/Binary/AdjustmentScreenVUEngineLogo.o
 .data          0x0500013c        0x0 build/tools/./assets/images/AdjustmentScreen/Binary/AdjustmentScreenVUEngineBG.o
 .data          0x0500013c        0x0 build/tools/./assets/images/AdjustmentScreen/Definition/AdjustmentScreenVUEngineBGDefinition.o
 .data          0x0500013c        0x0 build/tools/./assets/images/AdjustmentScreen/Definition/AdjustmentScreenVUEngineIconDefinition.o
 .data          0x0500013c        0x0 build/tools/./assets/images/AdjustmentScreen/Definition/AdjustmentScreenVUEngineLogoDefinition.o
 .data          0x0500013c        0x0 build/tools/./assets/images/Buildings/Binary/Barberia1.o
 .data          0x0500013c        0x0 build/tools/./assets/images/Buildings/Binary/House5Black.o
 .data          0x0500013c        0x0 build/tools/./assets/images/Buildings/Binary/House4.o
 .data          0x0500013c        0x0 build/tools/./assets/images/Buildings/Binary/House1Black.o
 .data          0x0500013c        0x0 build/tools/./assets/images/Buildings/Binary/House2.o
 .data          0x0500013c        0x0 build/tools/./assets/images/Buildings/Binary/Wall1.o
 .data          0x0500013c        0x0 build/tools/./assets/images/Buildings/Binary/House5.o
 .data          0x0500013c        0x0 build/tools/./assets/images/Buildings/Binary/House6Black.o
 .data          0x0500013c        0x0 build/tools/./assets/images/Buildings/Binary/House1.o
 .data          0x0500013c        0x0 build/tools/./assets/images/Buildings/Binary/House3.o
 .data          0x0500013c        0x0 build/tools/./assets/images/Buildings/Binary/House3Black.o
 .data          0x0500013c        0x0 build/tools/./assets/images/Buildings/Binary/Garage1Black.o
 .data          0x0500013c        0x0 build/tools/./assets/images/Buildings/Binary/Barberia1Black.o
 .data          0x0500013c        0x0 build/tools/./assets/images/Buildings/Binary/House4Black.o
 .data          0x0500013c        0x0 build/tools/./assets/images/Buildings/Binary/Garage2.o
 .data          0x0500013c        0x0 build/tools/./assets/images/Buildings/Binary/Playground1.o
 .data          0x0500013c        0x0 build/tools/./assets/images/Buildings/Binary/Garage1.o
 .data          0x0500013c        0x0 build/tools/./assets/images/Buildings/Binary/House2Black.o
 .data          0x0500013c        0x0 build/tools/./assets/images/Buildings/Binary/House6.o
 .data          0x0500013c        0x0 build/tools/./assets/images/Buildings/Binary/Wall1Black.o
 .data          0x0500013c        0x0 build/tools/./assets/images/Buildings/Definition/House4Definition.o
 .data          0x0500013c        0x0 build/tools/./assets/images/Buildings/Definition/House6Definition.o
 .data          0x0500013c        0x0 build/tools/./assets/images/Buildings/Definition/Garage2Definition.o
 .data          0x0500013c        0x0 build/tools/./assets/images/Buildings/Definition/Playground1Definition.o
 .data          0x0500013c        0x0 build/tools/./assets/images/Buildings/Definition/Wall1Definition.o
 .data          0x0500013c        0x0 build/tools/./assets/images/Buildings/Definition/House2Definition.o
 .data          0x0500013c        0x0 build/tools/./assets/images/Buildings/Definition/Garage1Definition.o
 .data          0x0500013c        0x0 build/tools/./assets/images/Buildings/Definition/House3Definition.o
 .data          0x0500013c        0x0 build/tools/./assets/images/Buildings/Definition/House1Definition.o
 .data          0x0500013c        0x0 build/tools/./assets/images/Buildings/Definition/Barberia1Definition.o
 .data          0x0500013c        0x0 build/tools/./assets/images/Buildings/Definition/House5Definition.o
 .data          0x0500013c        0x0 build/tools/./assets/images/CityBackground/Binary/CityBackgroundB.o
 .data          0x0500013c        0x0 build/tools/./assets/images/CityBackground/Binary/CityBackgroundA.o
 .data          0x0500013c        0x0 build/tools/./assets/images/CityBackground/Definition/CityBgDefinition.o
 .data          0x0500013c        0x0 build/tools/./assets/images/CityFloor/Binary/CityFloor.o
 .data          0x0500013c        0x0 build/tools/./assets/images/CityFloor/Definition/CityFloorDefinition.o
 .data          0x0500013c        0x0 build/tools/./assets/images/Decoration/Binary/PlaygroundSign1.o
 .data          0x0500013c        0x0 build/tools/./assets/images/Decoration/Binary/Bike1.o
 .data          0x0500013c        0x0 build/tools/./assets/images/Decoration/Binary/BushBg1.o
 .data          0x0500013c        0x0 build/tools/./assets/images/Decoration/Binary/Lantern1.o
 .data          0x0500013c        0x0 build/tools/./assets/images/Decoration/Binary/TreeBg1.o
 .data          0x0500013c        0x0 build/tools/./assets/images/Decoration/Binary/Motorbike1.o
 .data          0x0500013c        0x0 build/tools/./assets/images/Decoration/Binary/CarBg1.o
 .data          0x0500013c        0x0 build/tools/./assets/images/Decoration/Binary/Bench1.o
 .data          0x0500013c        0x0 build/tools/./assets/images/Decoration/Binary/TrashBin1.o
 .data          0x0500013c        0x0 build/tools/./assets/images/Decoration/Binary/PlaygroundSign1Black.o
 .data          0x0500013c        0x0 build/tools/./assets/images/Decoration/Binary/Fence2.o
 .data          0x0500013c        0x0 build/tools/./assets/images/Decoration/Binary/BushBg2.o
 .data          0x0500013c        0x0 build/tools/./assets/images/Decoration/Binary/Car1.o
 .data          0x0500013c        0x0 build/tools/./assets/images/Decoration/Binary/Clothes1.o
 .data          0x0500013c        0x0 build/tools/./assets/images/Decoration/Binary/Container1.o
 .data          0x0500013c        0x0 build/tools/./assets/images/Decoration/Binary/Fence1.o
 .data          0x0500013c        0x0 build/tools/./assets/images/Decoration/Binary/Lantern1Black.o
 .data          0x0500013c        0x0 build/tools/./assets/images/Decoration/Binary/Statue1.o
 .data          0x0500013c        0x0 build/tools/./assets/images/Decoration/Binary/Thing1.o
 .data          0x0500013c        0x0 build/tools/./assets/images/Decoration/Binary/Tree1.o
 .data          0x0500013c        0x0 build/tools/./assets/images/Decoration/Definition/Thing1Definition.o
 .data          0x0500013c        0x0 build/tools/./assets/images/Decoration/Definition/Tree1Definition.o
 .data          0x0500013c        0x0 build/tools/./assets/images/Decoration/Definition/Clothes1Definition.o
 .data          0x0500013c        0x0 build/tools/./assets/images/Decoration/Definition/Container1Definition.o
 .data          0x0500013c        0x0 build/tools/./assets/images/Decoration/Definition/Statue1Definition.o
 .data          0x0500013c        0x0 build/tools/./assets/images/Decoration/Definition/Bike1Definition.o
 .data          0x0500013c        0x0 build/tools/./assets/images/Decoration/Definition/PlaygroundSign1Definition.o
 .data          0x0500013c        0x0 build/tools/./assets/images/Decoration/Definition/Fence2Definition.o
 .data          0x0500013c        0x0 build/tools/./assets/images/Decoration/Definition/BushBg1Definition.o
 .data          0x0500013c        0x0 build/tools/./assets/images/Decoration/Definition/Fence1Definition.o
 .data          0x0500013c        0x0 build/tools/./assets/images/Decoration/Definition/Lantern1Definition.o
 .data          0x0500013c        0x0 build/tools/./assets/images/Decoration/Definition/TrashBin1Definition.o
 .data          0x0500013c        0x0 build/tools/./assets/images/Decoration/Definition/BushBg2Definition.o
 .data          0x0500013c        0x0 build/tools/./assets/images/Decoration/Definition/Bench1Definition.o
 .data          0x0500013c        0x0 build/tools/./assets/images/Decoration/Definition/TreeBg1Definition.o
 .data          0x0500013c        0x0 build/tools/./assets/images/Decoration/Definition/Motorbike1Definition.o
 .data          0x0500013c        0x0 build/tools/./assets/images/Decoration/Definition/Car1Definition.o
 .data          0x0500013c        0x0 build/tools/./assets/images/Decoration/Definition/CarBg1Definition.o
 .data          0x0500013c        0x0 build/tools/./assets/images/Fonts/Binary/FontDefault.o
 .data          0x0500013c        0x0 build/tools/./assets/images/Fonts/Definition/FontDefaultDefinition.o
 .data          0x0500013c        0x0 build/tools/./assets/images/Gui/Binary/Gui.o
 .data          0x0500013c        0x0 build/tools/./assets/images/Gui/Definition/GuiDefinition.o
 .data          0x0500013c        0x0 build/tools/./assets/images/Hero/Binary/HeroBlack.o
 .data          0x0500013c        0x0 build/tools/./assets/images/Hero/Binary/Hero.o
 .data          0x0500013c        0x0 build/tools/./assets/images/Hero/Definition/HeroDefinition.o
 .data          0x0500013c        0x0 build/tools/./assets/images/TitleScreen/Binary/TitleCapitanBlack.o
 .data          0x0500013c        0x0 build/tools/./assets/images/TitleScreen/Binary/TitleEarth.o
 .data          0x0500013c        0x0 build/tools/./assets/images/TitleScreen/Binary/TitleLogo.o
 .data          0x0500013c        0x0 build/tools/./assets/images/TitleScreen/Binary/TitleCapitan.o
 .data          0x0500013c        0x0 build/tools/./assets/images/TitleScreen/Binary/TitleSubTitle.o
 .data          0x0500013c        0x0 build/tools/./assets/images/TitleScreen/Binary/TitleLogoBlack.o
 .data          0x0500013c        0x0 build/tools/./assets/images/TitleScreen/Definition/TitleEarthDefinition.o
 .data          0x0500013c        0x0 build/tools/./assets/images/TitleScreen/Definition/TitleSubTitleDefinition.o
 .data          0x0500013c        0x0 build/tools/./assets/images/TitleScreen/Definition/TitleCapitanDefinition.o
 .data          0x0500013c        0x0 build/tools/./assets/images/TitleScreen/Definition/TitleLogoDefinition.o
 .data          0x0500013c        0x0 build/tools/./assets/languages/Language_DE.o
 .data          0x0500013c        0x0 build/tools/./assets/languages/Language_ES.o
 .data          0x0500013c        0x0 build/tools/./assets/languages/Languages.o
 .data          0x0500013c        0x0 build/tools/./assets/languages/Language_FR.o
 .data          0x0500013c        0x0 build/tools/./assets/languages/Language_EN.o
 .data          0x0500013c        0x0 build/tools/./assets/levels/Level1Definition.o
 .data          0x0500013c        0x0 build/tools/./assets/sounds/CollectDefinition.o
 .data          0x0500013c        0x0 build/tools/./assets/sounds/BGM1Definition.o
 .data          0x0500013c        0x0 build/tools/./assets/sounds/JumpDefinition.o
 .data          0x0500013c        0x0 build/tools/./assets/sounds/FireDefinition.o
 .data          0x0500013c        0x0 build/tools/./assets/sounds/BGM2Definition.o
 .data          0x0500013c        0x0 build/tools/./assets/stages/Level1/Definition/Level1MainStageDefinition.o
 .data          0x0500013c        0x0 build/tools/./assets/stages/Various/Definition/TitleScreenStageDefinition.o
 .data          0x0500013c        0x0 build/tools/./assets/stages/Various/Definition/EmptyStageDefinition.o
 .data          0x0500013c        0x0 build/tools/./assets/stages/Various/Definition/AdjustmentScreenStageDefinition.o
 .data          0x0500013c        0x0 build/tools/./assets/stages/Various/Definition/PauseScreenStageDefinition.o
 .data          0x0500013c        0x0 C:/vbde/samples/vuengine/capitan-sevilla/lib/compiler/setupClasses.o
 .data          0x0500013c        0x0 build\libvuengine.a(crt0.o)
 .data          0x0500013c        0x0 build\libvuengine.a(Game.o)
 .data          0x0500013c        0x0 build\libvuengine.a(Error.o)
 .data          0x0500013c        0x0 build\libvuengine.a(FrameRate.o)
 .data          0x0500013c        0x0 build\libvuengine.a(I18n.o)
 .data          0x0500013c        0x0 build\libvuengine.a(VirtualNode.o)
 .data          0x0500013c        0x0 build\libvuengine.a(VirtualList.o)
 .data          0x0500013c        0x0 build\libvuengine.a(State.o)
 .data          0x0500013c        0x0 build\libvuengine.a(Clock.o)
 .data          0x0500013c        0x8 build\libvuengine.a(Object.o)
 .data          0x05000144        0x0 build\libvuengine.a(MemoryPool.o)
 .data          0x05000144        0x0 build\libvuengine.a(ClockManager.o)
 .data          0x05000144        0x0 build\libvuengine.a(MessageDispatcher.o)
 .data          0x05000144        0x0 build\libvuengine.a(Telegram.o)
 .data          0x05000144        0x0 build\libvuengine.a(StateMachine.o)
 .data          0x05000144        0x0 build\libvuengine.a(Mem.o)
 .data          0x05000144        0x4 build\libvuengine.a(Utilities.o)
 .data          0x05000148        0x0 build\libvuengine.a(Math.o)
 .data          0x05000148        0x0 build\libvuengine.a(CameraEffectManager.o)
 .data          0x05000148        0x0 build\libvuengine.a(CameraMovementManager.o)
 .data          0x05000148        0x0 build\libvuengine.a(Camera.o)
 .data          0x05000148        0x0 build\libvuengine.a(Printing.o)
 .data          0x05000148        0x0 build\libvuengine.a(SpriteManager.o)
 .data          0x05000148        0x0 build\libvuengine.a(Sprite.o)
 .data          0x05000148        0x0 build\libvuengine.a(AnimationCoordinator.o)
 .data          0x05000148        0x0 build\libvuengine.a(AnimationController.o)
 .data          0x05000148        0x0 build\libvuengine.a(AnimationCoordinatorFactory.o)
 .data          0x05000148        0x0 build\libvuengine.a(BgmapSprite.o)
 .data          0x05000148        0x0 build\libvuengine.a(ParamTableManager.o)
 .data          0x05000148        0x0 build\libvuengine.a(BgmapAnimationCoordinator.o)
 .data          0x05000148        0x0 build\libvuengine.a(MBgmapSprite.o)
 .data          0x05000148        0x0 build\libvuengine.a(BgmapAnimatedSprite.o)
 .data          0x05000148        0x0 build\libvuengine.a(ObjectSpriteContainer.o)
 .data          0x05000148        0x0 build\libvuengine.a(ObjectAnimatedSprite.o)
 .data          0x05000148        0x0 build\libvuengine.a(ObjectSpriteContainerManager.o)
 .data          0x05000148        0x0 build\libvuengine.a(ObjectSprite.o)
 .data          0x05000148        0x0 build\libvuengine.a(ObjectAnimationCoordinator.o)
 .data          0x05000148        0x0 build\libvuengine.a(Texture.o)
 .data          0x05000148        0x0 build\libvuengine.a(BgmapTextureManager.o)
 .data          0x05000148        0x0 build\libvuengine.a(BgmapTexture.o)
 .data          0x05000148        0x0 build\libvuengine.a(CharSetManager.o)
 .data          0x05000148        0x0 build\libvuengine.a(CharSet.o)
 .data          0x05000148        0x0 build\libvuengine.a(ObjectTexture.o)
 .data          0x05000148        0x0 build\libvuengine.a(Wireframe.o)
 .data          0x05000148        0x0 build\libvuengine.a(Polyhedron.o)
 .data          0x05000148        0x0 build\libvuengine.a(DirectDraw.o)
 .data          0x05000148        0x0 build\libvuengine.a(Sphere.o)
 .data          0x05000148        0x0 build\libvuengine.a(WireframeManager.o)
 .data          0x05000148        0x0 build\libvuengine.a(HardwareManager.o)
 .data          0x05000148        0x0 build\libvuengine.a(SRAMManager.o)
 .data          0x05000148        0x0 build\libvuengine.a(KeyPadManager.o)
 .data          0x05000148        0x0 build\libvuengine.a(TimerManager.o)
 .data          0x05000148        0x0 build\libvuengine.a(VIPManager.o)
 .data          0x05000148        0x0 build\libvuengine.a(SoundManager.o)
 .data          0x05000148        0x0 build\libvuengine.a(Shape.o)
 .data          0x05000148        0x0 build\libvuengine.a(CollisionManager.o)
 .data          0x05000148        0x0 build\libvuengine.a(CollisionHelper.o)
 .data          0x05000148        0x0 build\libvuengine.a(PhysicalWorld.o)
 .data          0x05000148        0x0 build\libvuengine.a(InverseBox.o)
 .data          0x05000148        0x0 build\libvuengine.a(Body.o)
 .data          0x05000148        0x0 build\libvuengine.a(Box.o)
 .data          0x05000148        0x0 build\libvuengine.a(Ball.o)
 .data          0x05000148        0x0 build\libvuengine.a(UiContainer.o)
 .data          0x05000148        0x6 build\libvuengine.a(SpatialObject.o)
 .data          0x0500014e        0x0 build\libvuengine.a(Stage.o)
 .data          0x0500014e        0x0 build\libvuengine.a(EntityFactory.o)
 .data          0x0500014e        0x0 build\libvuengine.a(ReflectiveEntity.o)
 .data          0x0500014e        0x0 build\libvuengine.a(Entity.o)
 .data          0x0500014e        0x0 build\libvuengine.a(Actor.o)
 .data          0x0500014e        0x0 build\libvuengine.a(ManagedEntity.o)
 .data          0x0500014e        0x0 build\libvuengine.a(Container.o)
 .data          0x0500014e        0x0 build\libvuengine.a(AnimatedEntity.o)
 .data          0x0500014e        0x0 build\libvuengine.a(ParticleRemover.o)
 .data          0x0500014e        0x0 build\libvuengine.a(SolidParticle.o)
 .data          0x0500014e        0x0 build\libvuengine.a(Particle.o)
 .data          0x0500014e        0x0 build\libvuengine.a(ParticleBody.o)
 .data          0x0500014e        0x0 build\libvuengine.a(ParticleSystem.o)
 .data          0x0500014e        0x0 build\libvuengine.a(DebugState.o)
 .data          0x0500014e        0x0 build\libvuengine.a(StageEditorState.o)
 .data          0x0500014e        0x0 build\libvuengine.a(GameState.o)
 .data          0x0500014e        0x0 build\libvuengine.a(AnimationInspectorState.o)
 .data          0x0500014e        0x0 build\libvuengine.a(StageEditor.o)
 .data          0x0500014e        0x0 build\libvuengine.a(OptionsSelector.o)
 .data          0x0500014e        0x0 build\libvuengine.a(Debug.o)
 .data          0x0500014e        0x0 build\libvuengine.a(AnimationInspector.o)
 .data          0x0500014e        0x0 build\libvuengine.a(ColumnTable.o)
 .data          0x0500014e        0x0 build\libvuengine.a(VUEngineFontDefinition.o)
 .data          0x0500014e        0x0 build\libvuengine.a(Optics.o)
 .data          0x0500014e        0x0 build\libvuengine.a(Affine.o)
 .data          0x0500014e        0x0 build\libvuengine.a(VUEngineFont.o)
 .data          0x0500014e        0x0 c:/vbde/system/msys32/v810/v810-win32/bin/../lib/gcc/v810/4.7.4\libgcc.a(_divdi3.o)
 .data          0x0500014e        0x0 c:/vbde/system/msys32/v810/v810-win32/bin/../lib/gcc/v810/4.7.4\libgcc.a(_lt_sf.o)
 .data          0x0500014e        0x0 c:/vbde/system/msys32/v810/v810-win32/bin/../lib/gcc/v810/4.7.4\libgcc.a(_clz.o)
 .data          0x0500014e        0x0 c:/vbde/system/msys32/v810/v810-win32/bin/../lib/gcc/v810/4.7.4\libgcc.a(_unpack_sf.o)
 .data          0x0500014e        0x0 c:/vbde/system/msys32/v810/v810-win32/bin/../lib/gcc/v810/4.7.4\libgcc.a(_fpcmp_parts_sf.o)
 .data          0x0500014e        0x0 c:/vbde/system/msys32/v810/v810-win32/bin/../lib/gcc/v810/4.7.4/../../../../v810/lib\libc.a(lib_a-strcmp.o)
 .data          0x0500014e        0x0 c:/vbde/system/msys32/v810/v810-win32/bin/../lib/gcc/v810/4.7.4/../../../../v810/lib\libc.a(lib_a-strcpy.o)
 .data          0x0500014e        0x0 c:/vbde/system/msys32/v810/v810-win32/bin/../lib/gcc/v810/4.7.4/../../../../v810/lib\libc.a(lib_a-strlen.o)
 .data          0x0500014e        0x0 c:/vbde/system/msys32/v810/v810-win32/bin/../lib/gcc/v810/4.7.4/../../../../v810/lib\libc.a(lib_a-strncmp.o)
 .data          0x0500014e        0x0 c:/vbde/system/msys32/v810/v810-win32/bin/../lib/gcc/v810/4.7.4/../../../../v810/lib\libc.a(lib_a-strncpy.o)
 .data          0x0500014e        0x0 c:/vbde/system/msys32/v810/v810-win32/bin/../lib/gcc/v810/4.7.4/../../../../v810/lib\libc.a(lib_a-strnlen.o)

.sdata          0x0500014e       0x4c load address 0x070824a2
                0x0500814e                PROVIDE (__gp, (. + 0x8000))
 *(.sdata*)
 .sdata         0x0500014e        0x1 build/tools/./source/components/ProgressManager.o
 .sdata         0x0500014f        0x1 build/tools/./source/components/EventManager.o
 .sdata         0x05000150        0x1 build/tools/./source/components/CustomCameraEffectManager.o
 .sdata         0x05000151        0x1 build/tools/./source/components/CustomCameraMovementManager.o
 .sdata         0x05000152        0x1 build/tools/./source/objects/actors/Hero/states/HeroMoving.o
 .sdata         0x05000153        0x1 build/tools/./source/objects/actors/Hero/states/HeroIdle.o
 .sdata         0x05000154        0x1 build/tools/./source/states/AutoPauseScreenState/AutoPauseScreenState.o
 .sdata         0x05000155        0x1 build/tools/./source/states/LevelDoneScreenState/LevelDoneScreenState.o
 .sdata         0x05000156        0x1 build/tools/./source/states/OptionsScreenState/OptionsScreenState.o
 .sdata         0x05000157        0x1 build/tools/./source/states/PauseScreenState/PauseScreenState.o
 .sdata         0x05000158        0x1 build/tools/./source/states/PlatformerLevelState/PlatformerLevelState.o
 .sdata         0x05000159        0x1 build/tools/./source/states/SplashScreens/AdjustmentScreenState/AdjustmentScreenState.o
 .sdata         0x0500015a        0x1 build/tools/./source/states/SplashScreens/AutoPauseSelectScreenState/AutoPauseSelectScreenState.o
 .sdata         0x0500015b        0x1 build/tools/./source/states/SplashScreens/LangSelectScreenState/LangSelectScreenState.o
 .sdata         0x0500015c        0x1 build/tools/./source/states/SplashScreens/PrecautionScreenState/PrecautionScreenState.o
 .sdata         0x0500015d        0x1 build/tools/./source/states/TitleScreenState/TitleScreenState.o
 .sdata         0x0500015e        0x1 build\libvuengine.a(Game.o)
 .sdata         0x0500015f        0x1 build\libvuengine.a(Error.o)
 .sdata         0x05000160        0x1 build\libvuengine.a(FrameRate.o)
 .sdata         0x05000161        0x1 build\libvuengine.a(I18n.o)
 *fill*         0x05000162        0x2 ff
 .sdata         0x05000164        0x8 build\libvuengine.a(MemoryPool.o)
                0x05000164                __memoryPool
 .sdata         0x0500016c        0x1 build\libvuengine.a(ClockManager.o)
 .sdata         0x0500016d        0x1 build\libvuengine.a(MessageDispatcher.o)
 .sdata         0x0500016e        0x1 build\libvuengine.a(CameraEffectManager.o)
 .sdata         0x0500016f        0x1 build\libvuengine.a(CameraMovementManager.o)
 .sdata         0x05000170        0x1 build\libvuengine.a(Camera.o)
 .sdata         0x05000171        0x1 build\libvuengine.a(Printing.o)
 .sdata         0x05000172        0x1 build\libvuengine.a(SpriteManager.o)
 .sdata         0x05000173        0x1 build\libvuengine.a(AnimationCoordinatorFactory.o)
 .sdata         0x05000174        0x1 build\libvuengine.a(ParamTableManager.o)
 .sdata         0x05000175        0x1 build\libvuengine.a(ObjectSpriteContainerManager.o)
 .sdata         0x05000176        0x1 build\libvuengine.a(BgmapTextureManager.o)
 .sdata         0x05000177        0x1 build\libvuengine.a(CharSetManager.o)
 .sdata         0x05000178        0x1 build\libvuengine.a(DirectDraw.o)
 .sdata         0x05000179        0x1 build\libvuengine.a(WireframeManager.o)
 .sdata         0x0500017a        0x1 build\libvuengine.a(HardwareManager.o)
 .sdata         0x0500017b        0x1 build\libvuengine.a(SRAMManager.o)
 .sdata         0x0500017c        0x1 build\libvuengine.a(KeyPadManager.o)
 .sdata         0x0500017d        0x1 build\libvuengine.a(TimerManager.o)
 *fill*         0x0500017e        0x2 ff
 .sdata         0x05000180        0xc build\libvuengine.a(VIPManager.o)
                0x05000180                __vipRegisters
 .sdata         0x0500018c        0x1 build\libvuengine.a(SoundManager.o)
 .sdata         0x0500018d        0x1 build\libvuengine.a(CollisionHelper.o)
 *fill*         0x0500018e        0x2 ff
 .sdata         0x05000190        0x4 build\libvuengine.a(Stage.o)
 .sdata         0x05000194        0x1 build\libvuengine.a(DebugState.o)
 .sdata         0x05000195        0x1 build\libvuengine.a(StageEditorState.o)
 .sdata         0x05000196        0x1 build\libvuengine.a(AnimationInspectorState.o)
 .sdata         0x05000197        0x1 build\libvuengine.a(StageEditor.o)
 .sdata         0x05000198        0x1 build\libvuengine.a(Debug.o)
 .sdata         0x05000199        0x1 build\libvuengine.a(AnimationInspector.o)
                0x0500019a                PROVIDE (__data_end, .)

.dram_data      0x0003a000        0x0 load address 0x070824ee
                0x0003a000                PROVIDE (__dram_data_start, .)
 *(.dram_data*)
                0x0003a000                PROVIDE (__dram_data_end, .)

.sram_data      0x06000000        0x0 load address 0x070824ee
                0x06000000                PROVIDE (__sram_data_start, .)
 *(.sram_data*)
                0x06000000                PROVIDE (__sram_data_end, .)

.sbss           0x0500019c     0xccf4 load address 0x070824f0
                0x0500019c                PROVIDE (__bss_start, .)
 *(.sbss*)
 .sbss          0x0500019c        0x4 build/tools/./source/states/AutoPauseScreenState/AutoPauseScreenState.o
 .sbss          0x050001a0        0x4 build/tools/./source/states/LevelDoneScreenState/LevelDoneScreenState.o
 .sbss          0x050001a4        0x4 build/tools/./source/states/SplashScreens/AdjustmentScreenState/AdjustmentScreenState.o
 .sbss          0x050001a8        0x4 build/tools/./source/states/SplashScreens/AutoPauseSelectScreenState/AutoPauseSelectScreenState.o
 .sbss          0x050001ac        0x4 build/tools/./source/states/SplashScreens/LangSelectScreenState/LangSelectScreenState.o
 .sbss          0x050001b0        0x4 build/tools/./source/states/SplashScreens/PrecautionScreenState/PrecautionScreenState.o
 .sbss          0x050001b4     0xccdc build\libvuengine.a(MemoryPool.o)
 *(.scommon*)

.bss            0x0500ce90      0x238 load address 0x0708f1e4
 *(.bss*)
 .bss           0x0500ce90        0x0 build/tools/./source/globals.o
 .bss           0x0500ce90        0x0 build/tools/./source/game.o
 .bss           0x0500ce90        0x0 build/tools/./source/components/ProgressManager.o
 .bss           0x0500ce90        0x0 build/tools/./source/components/AffineTransformations.o
 .bss           0x0500ce90       0x98 build/tools/./source/components/PostProcessingEffects.o
 .bss           0x0500cf28        0x4 build/tools/./source/components/HbiasEffects.o
 .bss           0x0500cf2c        0x0 build/tools/./source/components/EventManager.o
 .bss           0x0500cf2c        0x4 build/tools/./source/components/CustomCameraEffectManager.o
 .bss           0x0500cf30        0x0 build/tools/./source/components/CameraTriggerEntity.o
 .bss           0x0500cf30        0x4 build/tools/./source/components/CustomCameraMovementManager.o
 .bss           0x0500cf34        0x4 build/tools/./source/components/graphics/HbiasMaskMBgmapSprite.o
 .bss           0x0500cf38        0x4 build/tools/./source/components/graphics/GUISprite.o
 .bss           0x0500cf3c        0x4 build/tools/./source/objects/actors/Hero/Hero.o
                0x0500cf3c                _hero
 .bss           0x0500cf40        0x0 build/tools/./source/objects/actors/Hero/states/HeroState.o
 .bss           0x0500cf40        0x0 build/tools/./source/objects/actors/Hero/states/HeroMoving.o
 .bss           0x0500cf40        0x0 build/tools/./source/objects/actors/Hero/states/HeroIdle.o
 .bss           0x0500cf40        0x0 build/tools/./source/objects/actors/MovingEntity/MovingEntity.o
 .bss           0x0500cf40        0x0 build/tools/./source/objects/elements/Collision/Collision.o
 .bss           0x0500cf40        0x0 build/tools/./source/objects/elements/Collision/CollisionDefinition.o
 .bss           0x0500cf40        0x0 build/tools/./source/objects/elements/Door/Door.o
 .bss           0x0500cf40        0x0 build/tools/./source/objects/elements/Door/LayerSwitchDoor.o
 .bss           0x0500cf40        0x0 build/tools/./source/objects/elements/Door/GoalDoor.o
 .bss           0x0500cf40        0x0 build/tools/./source/objects/elements/Door/KeyDoor.o
 .bss           0x0500cf40        0x0 build/tools/./source/objects/elements/Gui/Gui.o
 .bss           0x0500cf40        0x0 build/tools/./source/objects/items/Collectable/Collectable.o
 .bss           0x0500cf40        0x0 build/tools/./source/objects/items/Item/Item.o
 .bss           0x0500cf40        0x0 build/tools/./source/states/AutoPauseScreenState/AutoPauseScreenState.o
 .bss           0x0500cf40        0x0 build/tools/./source/states/LevelDoneScreenState/LevelDoneScreenState.o
 .bss           0x0500cf40        0x0 build/tools/./source/states/OptionsScreenState/OptionsScreenState.o
 .bss           0x0500cf40        0x0 build/tools/./source/states/PauseScreenState/PauseScreenState.o
 .bss           0x0500cf40        0x0 build/tools/./source/states/PlatformerLevelState/PlatformerLevelState.o
 .bss           0x0500cf40        0x0 build/tools/./source/states/SplashScreens/AdjustmentScreenState/AdjustmentScreenState.o
 .bss           0x0500cf40        0x0 build/tools/./source/states/SplashScreens/AutoPauseSelectScreenState/AutoPauseSelectScreenState.o
 .bss           0x0500cf40        0x0 build/tools/./source/states/SplashScreens/LangSelectScreenState/LangSelectScreenState.o
 .bss           0x0500cf40        0x0 build/tools/./source/states/SplashScreens/PrecautionScreenState/PrecautionScreenState.o
 .bss           0x0500cf40        0x0 build/tools/./source/states/SplashScreens/SplashScreenState/SplashScreenState.o
 .bss           0x0500cf40        0x0 build/tools/./source/states/TitleScreenState/TitleScreenState.o
 .bss           0x0500cf40        0x0 build/tools/./assets/data/ColumnTable.o
 .bss           0x0500cf40        0x0 build/tools/./assets/fonts/Fonts.o
 .bss           0x0500cf40        0x0 build/tools/./assets/images/AdjustmentScreen/Binary/AdjustmentScreenVUEngineIcon.o
 .bss           0x0500cf40        0x0 build/tools/./assets/images/AdjustmentScreen/Binary/AdjustmentScreenVUEngineLogo.o
 .bss           0x0500cf40        0x0 build/tools/./assets/images/AdjustmentScreen/Binary/AdjustmentScreenVUEngineBG.o
 .bss           0x0500cf40        0x0 build/tools/./assets/images/AdjustmentScreen/Definition/AdjustmentScreenVUEngineBGDefinition.o
 .bss           0x0500cf40        0x0 build/tools/./assets/images/AdjustmentScreen/Definition/AdjustmentScreenVUEngineIconDefinition.o
 .bss           0x0500cf40        0x0 build/tools/./assets/images/AdjustmentScreen/Definition/AdjustmentScreenVUEngineLogoDefinition.o
 .bss           0x0500cf40        0x0 build/tools/./assets/images/Buildings/Binary/Barberia1.o
 .bss           0x0500cf40        0x0 build/tools/./assets/images/Buildings/Binary/House5Black.o
 .bss           0x0500cf40        0x0 build/tools/./assets/images/Buildings/Binary/House4.o
 .bss           0x0500cf40        0x0 build/tools/./assets/images/Buildings/Binary/House1Black.o
 .bss           0x0500cf40        0x0 build/tools/./assets/images/Buildings/Binary/House2.o
 .bss           0x0500cf40        0x0 build/tools/./assets/images/Buildings/Binary/Wall1.o
 .bss           0x0500cf40        0x0 build/tools/./assets/images/Buildings/Binary/House5.o
 .bss           0x0500cf40        0x0 build/tools/./assets/images/Buildings/Binary/House6Black.o
 .bss           0x0500cf40        0x0 build/tools/./assets/images/Buildings/Binary/House1.o
 .bss           0x0500cf40        0x0 build/tools/./assets/images/Buildings/Binary/House3.o
 .bss           0x0500cf40        0x0 build/tools/./assets/images/Buildings/Binary/House3Black.o
 .bss           0x0500cf40        0x0 build/tools/./assets/images/Buildings/Binary/Garage1Black.o
 .bss           0x0500cf40        0x0 build/tools/./assets/images/Buildings/Binary/Barberia1Black.o
 .bss           0x0500cf40        0x0 build/tools/./assets/images/Buildings/Binary/House4Black.o
 .bss           0x0500cf40        0x0 build/tools/./assets/images/Buildings/Binary/Garage2.o
 .bss           0x0500cf40        0x0 build/tools/./assets/images/Buildings/Binary/Playground1.o
 .bss           0x0500cf40        0x0 build/tools/./assets/images/Buildings/Binary/Garage1.o
 .bss           0x0500cf40        0x0 build/tools/./assets/images/Buildings/Binary/House2Black.o
 .bss           0x0500cf40        0x0 build/tools/./assets/images/Buildings/Binary/House6.o
 .bss           0x0500cf40        0x0 build/tools/./assets/images/Buildings/Binary/Wall1Black.o
 .bss           0x0500cf40        0x0 build/tools/./assets/images/Buildings/Definition/House4Definition.o
 .bss           0x0500cf40        0x0 build/tools/./assets/images/Buildings/Definition/House6Definition.o
 .bss           0x0500cf40        0x0 build/tools/./assets/images/Buildings/Definition/Garage2Definition.o
 .bss           0x0500cf40        0x0 build/tools/./assets/images/Buildings/Definition/Playground1Definition.o
 .bss           0x0500cf40        0x0 build/tools/./assets/images/Buildings/Definition/Wall1Definition.o
 .bss           0x0500cf40        0x0 build/tools/./assets/images/Buildings/Definition/House2Definition.o
 .bss           0x0500cf40        0x0 build/tools/./assets/images/Buildings/Definition/Garage1Definition.o
 .bss           0x0500cf40        0x0 build/tools/./assets/images/Buildings/Definition/House3Definition.o
 .bss           0x0500cf40        0x0 build/tools/./assets/images/Buildings/Definition/House1Definition.o
 .bss           0x0500cf40        0x0 build/tools/./assets/images/Buildings/Definition/Barberia1Definition.o
 .bss           0x0500cf40        0x0 build/tools/./assets/images/Buildings/Definition/House5Definition.o
 .bss           0x0500cf40        0x0 build/tools/./assets/images/CityBackground/Binary/CityBackgroundB.o
 .bss           0x0500cf40        0x0 build/tools/./assets/images/CityBackground/Binary/CityBackgroundA.o
 .bss           0x0500cf40        0x0 build/tools/./assets/images/CityBackground/Definition/CityBgDefinition.o
 .bss           0x0500cf40        0x0 build/tools/./assets/images/CityFloor/Binary/CityFloor.o
 .bss           0x0500cf40        0x0 build/tools/./assets/images/CityFloor/Definition/CityFloorDefinition.o
 .bss           0x0500cf40        0x0 build/tools/./assets/images/Decoration/Binary/PlaygroundSign1.o
 .bss           0x0500cf40        0x0 build/tools/./assets/images/Decoration/Binary/Bike1.o
 .bss           0x0500cf40        0x0 build/tools/./assets/images/Decoration/Binary/BushBg1.o
 .bss           0x0500cf40        0x0 build/tools/./assets/images/Decoration/Binary/Lantern1.o
 .bss           0x0500cf40        0x0 build/tools/./assets/images/Decoration/Binary/TreeBg1.o
 .bss           0x0500cf40        0x0 build/tools/./assets/images/Decoration/Binary/Motorbike1.o
 .bss           0x0500cf40        0x0 build/tools/./assets/images/Decoration/Binary/CarBg1.o
 .bss           0x0500cf40        0x0 build/tools/./assets/images/Decoration/Binary/Bench1.o
 .bss           0x0500cf40        0x0 build/tools/./assets/images/Decoration/Binary/TrashBin1.o
 .bss           0x0500cf40        0x0 build/tools/./assets/images/Decoration/Binary/PlaygroundSign1Black.o
 .bss           0x0500cf40        0x0 build/tools/./assets/images/Decoration/Binary/Fence2.o
 .bss           0x0500cf40        0x0 build/tools/./assets/images/Decoration/Binary/BushBg2.o
 .bss           0x0500cf40        0x0 build/tools/./assets/images/Decoration/Binary/Car1.o
 .bss           0x0500cf40        0x0 build/tools/./assets/images/Decoration/Binary/Clothes1.o
 .bss           0x0500cf40        0x0 build/tools/./assets/images/Decoration/Binary/Container1.o
 .bss           0x0500cf40        0x0 build/tools/./assets/images/Decoration/Binary/Fence1.o
 .bss           0x0500cf40        0x0 build/tools/./assets/images/Decoration/Binary/Lantern1Black.o
 .bss           0x0500cf40        0x0 build/tools/./assets/images/Decoration/Binary/Statue1.o
 .bss           0x0500cf40        0x0 build/tools/./assets/images/Decoration/Binary/Thing1.o
 .bss           0x0500cf40        0x0 build/tools/./assets/images/Decoration/Binary/Tree1.o
 .bss           0x0500cf40        0x0 build/tools/./assets/images/Decoration/Definition/Thing1Definition.o
 .bss           0x0500cf40        0x0 build/tools/./assets/images/Decoration/Definition/Tree1Definition.o
 .bss           0x0500cf40        0x0 build/tools/./assets/images/Decoration/Definition/Clothes1Definition.o
 .bss           0x0500cf40        0x0 build/tools/./assets/images/Decoration/Definition/Container1Definition.o
 .bss           0x0500cf40        0x0 build/tools/./assets/images/Decoration/Definition/Statue1Definition.o
 .bss           0x0500cf40        0x0 build/tools/./assets/images/Decoration/Definition/Bike1Definition.o
 .bss           0x0500cf40        0x0 build/tools/./assets/images/Decoration/Definition/PlaygroundSign1Definition.o
 .bss           0x0500cf40        0x0 build/tools/./assets/images/Decoration/Definition/Fence2Definition.o
 .bss           0x0500cf40        0x0 build/tools/./assets/images/Decoration/Definition/BushBg1Definition.o
 .bss           0x0500cf40        0x0 build/tools/./assets/images/Decoration/Definition/Fence1Definition.o
 .bss           0x0500cf40        0x0 build/tools/./assets/images/Decoration/Definition/Lantern1Definition.o
 .bss           0x0500cf40        0x0 build/tools/./assets/images/Decoration/Definition/TrashBin1Definition.o
 .bss           0x0500cf40        0x0 build/tools/./assets/images/Decoration/Definition/BushBg2Definition.o
 .bss           0x0500cf40        0x0 build/tools/./assets/images/Decoration/Definition/Bench1Definition.o
 .bss           0x0500cf40        0x0 build/tools/./assets/images/Decoration/Definition/TreeBg1Definition.o
 .bss           0x0500cf40        0x0 build/tools/./assets/images/Decoration/Definition/Motorbike1Definition.o
 .bss           0x0500cf40        0x0 build/tools/./assets/images/Decoration/Definition/Car1Definition.o
 .bss           0x0500cf40        0x0 build/tools/./assets/images/Decoration/Definition/CarBg1Definition.o
 .bss           0x0500cf40        0x0 build/tools/./assets/images/Fonts/Binary/FontDefault.o
 .bss           0x0500cf40        0x0 build/tools/./assets/images/Fonts/Definition/FontDefaultDefinition.o
 .bss           0x0500cf40        0x0 build/tools/./assets/images/Gui/Binary/Gui.o
 .bss           0x0500cf40        0x0 build/tools/./assets/images/Gui/Definition/GuiDefinition.o
 .bss           0x0500cf40        0x0 build/tools/./assets/images/Hero/Binary/HeroBlack.o
 .bss           0x0500cf40        0x0 build/tools/./assets/images/Hero/Binary/Hero.o
 .bss           0x0500cf40        0x0 build/tools/./assets/images/Hero/Definition/HeroDefinition.o
 .bss           0x0500cf40        0x0 build/tools/./assets/images/TitleScreen/Binary/TitleCapitanBlack.o
 .bss           0x0500cf40        0x0 build/tools/./assets/images/TitleScreen/Binary/TitleEarth.o
 .bss           0x0500cf40        0x0 build/tools/./assets/images/TitleScreen/Binary/TitleLogo.o
 .bss           0x0500cf40        0x0 build/tools/./assets/images/TitleScreen/Binary/TitleCapitan.o
 .bss           0x0500cf40        0x0 build/tools/./assets/images/TitleScreen/Binary/TitleSubTitle.o
 .bss           0x0500cf40        0x0 build/tools/./assets/images/TitleScreen/Binary/TitleLogoBlack.o
 .bss           0x0500cf40        0x0 build/tools/./assets/images/TitleScreen/Definition/TitleEarthDefinition.o
 .bss           0x0500cf40        0x0 build/tools/./assets/images/TitleScreen/Definition/TitleSubTitleDefinition.o
 .bss           0x0500cf40        0x0 build/tools/./assets/images/TitleScreen/Definition/TitleCapitanDefinition.o
 .bss           0x0500cf40        0x0 build/tools/./assets/images/TitleScreen/Definition/TitleLogoDefinition.o
 .bss           0x0500cf40        0x0 build/tools/./assets/languages/Language_DE.o
 .bss           0x0500cf40        0x0 build/tools/./assets/languages/Language_ES.o
 .bss           0x0500cf40        0x0 build/tools/./assets/languages/Languages.o
 .bss           0x0500cf40        0x0 build/tools/./assets/languages/Language_FR.o
 .bss           0x0500cf40        0x0 build/tools/./assets/languages/Language_EN.o
 .bss           0x0500cf40        0x0 build/tools/./assets/levels/Level1Definition.o
 .bss           0x0500cf40        0x0 build/tools/./assets/sounds/CollectDefinition.o
 .bss           0x0500cf40        0x0 build/tools/./assets/sounds/BGM1Definition.o
 .bss           0x0500cf40        0x0 build/tools/./assets/sounds/JumpDefinition.o
 .bss           0x0500cf40        0x0 build/tools/./assets/sounds/FireDefinition.o
 .bss           0x0500cf40        0x0 build/tools/./assets/sounds/BGM2Definition.o
 .bss           0x0500cf40        0x0 build/tools/./assets/stages/Level1/Definition/Level1MainStageDefinition.o
 .bss           0x0500cf40        0x0 build/tools/./assets/stages/Various/Definition/TitleScreenStageDefinition.o
 .bss           0x0500cf40        0x0 build/tools/./assets/stages/Various/Definition/EmptyStageDefinition.o
 .bss           0x0500cf40        0x0 build/tools/./assets/stages/Various/Definition/AdjustmentScreenStageDefinition.o
 .bss           0x0500cf40        0x0 build/tools/./assets/stages/Various/Definition/PauseScreenStageDefinition.o
 .bss           0x0500cf40        0x0 C:/vbde/samples/vuengine/capitan-sevilla/lib/compiler/setupClasses.o
 .bss           0x0500cf40        0x0 build\libvuengine.a(crt0.o)
 .bss           0x0500cf40       0xb4 build\libvuengine.a(Game.o)
                0x0500cf40                __renderingProcessTime
                0x0500cf44                __renderingProcessTimeHelper
                0x0500cf46                __renderingHighestTime
                0x0500cf48                __renderingTotalTime
                0x0500cf4c                __tornGameFrameCount
                0x0500cf50                __updateProfiling
 .bss           0x0500cff4        0x4 build\libvuengine.a(Error.o)
                0x0500cff4                __triggeringException
 .bss           0x0500cff8        0x0 build\libvuengine.a(FrameRate.o)
 .bss           0x0500cff8        0x0 build\libvuengine.a(I18n.o)
 .bss           0x0500cff8        0x0 build\libvuengine.a(VirtualNode.o)
 .bss           0x0500cff8        0x0 build\libvuengine.a(VirtualList.o)
 .bss           0x0500cff8        0x0 build\libvuengine.a(State.o)
 .bss           0x0500cff8        0x0 build\libvuengine.a(Clock.o)
 .bss           0x0500cff8        0x0 build\libvuengine.a(Object.o)
 .bss           0x0500cff8        0x0 build\libvuengine.a(MemoryPool.o)
 .bss           0x0500cff8        0x0 build\libvuengine.a(ClockManager.o)
 .bss           0x0500cff8        0x0 build\libvuengine.a(MessageDispatcher.o)
 .bss           0x0500cff8        0x0 build\libvuengine.a(Telegram.o)
 .bss           0x0500cff8        0x0 build\libvuengine.a(StateMachine.o)
 .bss           0x0500cff8        0x0 build\libvuengine.a(Mem.o)
 .bss           0x0500cff8       0x10 build\libvuengine.a(Utilities.o)
                0x0500cff8                __gameClock
 .bss           0x0500d008        0x0 build\libvuengine.a(Math.o)
 .bss           0x0500d008        0x0 build\libvuengine.a(CameraEffectManager.o)
 .bss           0x0500d008        0x0 build\libvuengine.a(CameraMovementManager.o)
 .bss           0x0500d008       0x10 build\libvuengine.a(Camera.o)
                0x0500d008                __cameraFrustum
                0x0500d00c                __cameraDisplacement
                0x0500d010                __cameraPosition
                0x0500d014                __optical
 .bss           0x0500d018        0x0 build\libvuengine.a(Printing.o)
 .bss           0x0500d018        0x4 build\libvuengine.a(SpriteManager.o)
                0x0500d018                __totalPixelsToDraw
 .bss           0x0500d01c        0x0 build\libvuengine.a(Sprite.o)
 .bss           0x0500d01c        0x0 build\libvuengine.a(AnimationCoordinator.o)
 .bss           0x0500d01c        0x0 build\libvuengine.a(AnimationController.o)
 .bss           0x0500d01c        0x0 build\libvuengine.a(AnimationCoordinatorFactory.o)
 .bss           0x0500d01c        0xc build\libvuengine.a(BgmapSprite.o)
 .bss           0x0500d028        0x0 build\libvuengine.a(ParamTableManager.o)
 .bss           0x0500d028        0x0 build\libvuengine.a(BgmapAnimationCoordinator.o)
 .bss           0x0500d028        0x4 build\libvuengine.a(MBgmapSprite.o)
 .bss           0x0500d02c        0x0 build\libvuengine.a(BgmapAnimatedSprite.o)
 .bss           0x0500d02c        0x0 build\libvuengine.a(ObjectSpriteContainer.o)
 .bss           0x0500d02c        0x0 build\libvuengine.a(ObjectAnimatedSprite.o)
 .bss           0x0500d02c        0x0 build\libvuengine.a(ObjectSpriteContainerManager.o)
 .bss           0x0500d02c        0x0 build\libvuengine.a(ObjectSprite.o)
 .bss           0x0500d02c        0x0 build\libvuengine.a(ObjectAnimationCoordinator.o)
 .bss           0x0500d02c        0x0 build\libvuengine.a(Texture.o)
 .bss           0x0500d02c        0x0 build\libvuengine.a(BgmapTextureManager.o)
 .bss           0x0500d02c        0x8 build\libvuengine.a(BgmapTexture.o)
 .bss           0x0500d034        0x0 build\libvuengine.a(CharSetManager.o)
 .bss           0x0500d034       0x10 build\libvuengine.a(CharSet.o)
 .bss           0x0500d044        0x0 build\libvuengine.a(ObjectTexture.o)
 .bss           0x0500d044        0x0 build\libvuengine.a(Wireframe.o)
 .bss           0x0500d044        0x0 build\libvuengine.a(Polyhedron.o)
 .bss           0x0500d044        0x0 build\libvuengine.a(DirectDraw.o)
 .bss           0x0500d044        0x0 build\libvuengine.a(Sphere.o)
 .bss           0x0500d044        0x0 build\libvuengine.a(WireframeManager.o)
 .bss           0x0500d044        0x8 build\libvuengine.a(HardwareManager.o)
                0x0500d044                __sp
                0x0500d048                __lp
 .bss           0x0500d04c        0x0 build\libvuengine.a(SRAMManager.o)
 .bss           0x0500d04c        0x4 build\libvuengine.a(KeyPadManager.o)
 .bss           0x0500d050       0x10 build\libvuengine.a(TimerManager.o)
 .bss           0x0500d060       0x1c build\libvuengine.a(VIPManager.o)
                0x0500d060                __currentDrawingFrameBufferSet
 .bss           0x0500d07c        0x0 build\libvuengine.a(SoundManager.o)
 .bss           0x0500d07c        0x0 build\libvuengine.a(Shape.o)
 .bss           0x0500d07c        0x0 build\libvuengine.a(CollisionManager.o)
 .bss           0x0500d07c        0x0 build\libvuengine.a(CollisionHelper.o)
 .bss           0x0500d07c        0x0 build\libvuengine.a(PhysicalWorld.o)
 .bss           0x0500d07c        0x0 build\libvuengine.a(InverseBox.o)
 .bss           0x0500d07c       0x10 build\libvuengine.a(Body.o)
                0x0500d07c                __physhicsClock
                0x0500d080                __currentGravity
                0x0500d084                __currentElapsedTime
                0x0500d088                __currentWorldFriction
 .bss           0x0500d08c        0x0 build\libvuengine.a(Box.o)
 .bss           0x0500d08c        0x0 build\libvuengine.a(Ball.o)
 .bss           0x0500d08c        0x4 build\libvuengine.a(UiContainer.o)
 .bss           0x0500d090        0xc build\libvuengine.a(SpatialObject.o)
 .bss           0x0500d09c       0x14 build\libvuengine.a(Stage.o)
 .bss           0x0500d0b0        0x0 build\libvuengine.a(EntityFactory.o)
 .bss           0x0500d0b0        0x0 build\libvuengine.a(ReflectiveEntity.o)
 .bss           0x0500d0b0        0x8 build\libvuengine.a(Entity.o)
 .bss           0x0500d0b8        0x0 build\libvuengine.a(Actor.o)
 .bss           0x0500d0b8        0x0 build\libvuengine.a(ManagedEntity.o)
 .bss           0x0500d0b8        0x0 build\libvuengine.a(Container.o)
 .bss           0x0500d0b8        0x0 build\libvuengine.a(AnimatedEntity.o)
 .bss           0x0500d0b8        0x0 build\libvuengine.a(ParticleRemover.o)
 .bss           0x0500d0b8        0x4 build\libvuengine.a(SolidParticle.o)
 .bss           0x0500d0bc        0x0 build\libvuengine.a(Particle.o)
 .bss           0x0500d0bc        0x0 build\libvuengine.a(ParticleBody.o)
 .bss           0x0500d0bc        0xc build\libvuengine.a(ParticleSystem.o)
 .bss           0x0500d0c8        0x0 build\libvuengine.a(DebugState.o)
 .bss           0x0500d0c8        0x0 build\libvuengine.a(StageEditorState.o)
 .bss           0x0500d0c8        0x0 build\libvuengine.a(GameState.o)
 .bss           0x0500d0c8        0x0 build\libvuengine.a(AnimationInspectorState.o)
 .bss           0x0500d0c8        0x0 build\libvuengine.a(StageEditor.o)
 .bss           0x0500d0c8        0x0 build\libvuengine.a(OptionsSelector.o)
 .bss           0x0500d0c8        0x0 build\libvuengine.a(Debug.o)
 .bss           0x0500d0c8        0x0 build\libvuengine.a(AnimationInspector.o)
 .bss           0x0500d0c8        0x0 build\libvuengine.a(ColumnTable.o)
 .bss           0x0500d0c8        0x0 build\libvuengine.a(VUEngineFontDefinition.o)
 .bss           0x0500d0c8        0x0 build\libvuengine.a(Optics.o)
 .bss           0x0500d0c8        0x0 build\libvuengine.a(Affine.o)
 .bss           0x0500d0c8        0x0 build\libvuengine.a(VUEngineFont.o)
 .bss           0x0500d0c8        0x0 c:/vbde/system/msys32/v810/v810-win32/bin/../lib/gcc/v810/4.7.4\libgcc.a(_divdi3.o)
 .bss           0x0500d0c8        0x0 c:/vbde/system/msys32/v810/v810-win32/bin/../lib/gcc/v810/4.7.4\libgcc.a(_lt_sf.o)
 .bss           0x0500d0c8        0x0 c:/vbde/system/msys32/v810/v810-win32/bin/../lib/gcc/v810/4.7.4\libgcc.a(_clz.o)
 .bss           0x0500d0c8        0x0 c:/vbde/system/msys32/v810/v810-win32/bin/../lib/gcc/v810/4.7.4\libgcc.a(_unpack_sf.o)
 .bss           0x0500d0c8        0x0 c:/vbde/system/msys32/v810/v810-win32/bin/../lib/gcc/v810/4.7.4\libgcc.a(_fpcmp_parts_sf.o)
 .bss           0x0500d0c8        0x0 c:/vbde/system/msys32/v810/v810-win32/bin/../lib/gcc/v810/4.7.4/../../../../v810/lib\libc.a(lib_a-strcmp.o)
 .bss           0x0500d0c8        0x0 c:/vbde/system/msys32/v810/v810-win32/bin/../lib/gcc/v810/4.7.4/../../../../v810/lib\libc.a(lib_a-strcpy.o)
 .bss           0x0500d0c8        0x0 c:/vbde/system/msys32/v810/v810-win32/bin/../lib/gcc/v810/4.7.4/../../../../v810/lib\libc.a(lib_a-strlen.o)
 .bss           0x0500d0c8        0x0 c:/vbde/system/msys32/v810/v810-win32/bin/../lib/gcc/v810/4.7.4/../../../../v810/lib\libc.a(lib_a-strncmp.o)
 .bss           0x0500d0c8        0x0 c:/vbde/system/msys32/v810/v810-win32/bin/../lib/gcc/v810/4.7.4/../../../../v810/lib\libc.a(lib_a-strncpy.o)
 .bss           0x0500d0c8        0x0 c:/vbde/system/msys32/v810/v810-win32/bin/../lib/gcc/v810/4.7.4/../../../../v810/lib\libc.a(lib_a-strnlen.o)
 *(COMMON)
                0x0500d0c8                PROVIDE (__bss_end, .)

.dram_bss       0x0003a000     0x298c
                0x0003a000                PROVIDE (__dram_bss_start, .)
 *(.dram_bss*)
 .dram_bss      0x0003a000       0x40 build/tools/./source/components/ProgressManager.o
                0x0003a000                _ProgressManager_vTable
 .dram_bss      0x0003a040       0x18 build/tools/./source/components/EventManager.o
                0x0003a040                _EventManager_vTable
 .dram_bss      0x0003a058       0x3c build/tools/./source/components/CustomCameraEffectManager.o
                0x0003a058                _CustomCameraEffectManager_vTable
 .dram_bss      0x0003a094       0xcc build/tools/./source/components/CameraTriggerEntity.o
                0x0003a094                _CameraTriggerEntity_vTable
 .dram_bss      0x0003a160       0x28 build/tools/./source/components/CustomCameraMovementManager.o
                0x0003a160                _CustomCameraMovementManager_vTable
 .dram_bss      0x0003a188       0x58 build/tools/./source/components/graphics/HbiasMaskMBgmapSprite.o
                0x0003a188                _HbiasMaskMBgmapSprite_vTable
 .dram_bss      0x0003a1e0       0x58 build/tools/./source/components/graphics/GUISprite.o
                0x0003a1e0                _GUISprite_vTable
 .dram_bss      0x0003a238       0xe0 build/tools/./source/objects/actors/Hero/Hero.o
                0x0003a238                _Hero_vTable
 .dram_bss      0x0003a318       0x34 build/tools/./source/objects/actors/Hero/states/HeroState.o
                0x0003a318                _HeroState_vTable
 .dram_bss      0x0003a34c       0x40 build/tools/./source/objects/actors/Hero/states/HeroMoving.o
                0x0003a34c                _HeroMoving_vTable
 .dram_bss      0x0003a38c       0x3c build/tools/./source/objects/actors/Hero/states/HeroIdle.o
                0x0003a38c                _HeroIdle_vTable
 .dram_bss      0x0003a3c8       0xe0 build/tools/./source/objects/actors/MovingEntity/MovingEntity.o
                0x0003a3c8                _MovingEntity_vTable
 .dram_bss      0x0003a4a8       0xcc build/tools/./source/objects/elements/Collision/Collision.o
                0x0003a4a8                _Collision_vTable
 .dram_bss      0x0003a574       0xe0 build/tools/./source/objects/elements/Door/Door.o
                0x0003a574                _Door_vTable
 .dram_bss      0x0003a654       0xe0 build/tools/./source/objects/elements/Door/LayerSwitchDoor.o
                0x0003a654                _LayerSwitchDoor_vTable
 .dram_bss      0x0003a734       0xe0 build/tools/./source/objects/elements/Door/GoalDoor.o
                0x0003a734                _GoalDoor_vTable
 .dram_bss      0x0003a814       0xe0 build/tools/./source/objects/elements/Door/KeyDoor.o
                0x0003a814                _KeyDoor_vTable
 .dram_bss      0x0003a8f4       0xcc build/tools/./source/objects/elements/Gui/Gui.o
                0x0003a8f4                _Gui_vTable
 .dram_bss      0x0003a9c0       0xd0 build/tools/./source/objects/items/Collectable/Collectable.o
                0x0003a9c0                _Collectable_vTable
 .dram_bss      0x0003aa90       0xd0 build/tools/./source/objects/items/Item/Item.o
                0x0003aa90                _Item_vTable
 .dram_bss      0x0003ab60       0x30 build/tools/./source/states/AutoPauseScreenState/AutoPauseScreenState.o
                0x0003ab60                _AutoPauseScreenState_vTable
 .dram_bss      0x0003ab90       0x30 build/tools/./source/states/LevelDoneScreenState/LevelDoneScreenState.o
                0x0003ab90                _LevelDoneScreenState_vTable
 .dram_bss      0x0003abc0       0x68 build/tools/./source/states/OptionsScreenState/OptionsScreenState.o
                0x0003abc0                _OptionsScreenState_vTable
 .dram_bss      0x0003ac28       0x68 build/tools/./source/states/PauseScreenState/PauseScreenState.o
                0x0003ac28                _PauseScreenState_vTable
 .dram_bss      0x0003ac90       0x84 build/tools/./source/states/PlatformerLevelState/PlatformerLevelState.o
                0x0003ac90                _PlatformerLevelState_vTable
 .dram_bss      0x0003ad14       0x38 build/tools/./source/states/SplashScreens/AdjustmentScreenState/AdjustmentScreenState.o
                0x0003ad14                _AdjustmentScreenState_vTable
 .dram_bss      0x0003ad4c       0x38 build/tools/./source/states/SplashScreens/AutoPauseSelectScreenState/AutoPauseSelectScreenState.o
                0x0003ad4c                _AutoPauseSelectScreenState_vTable
 .dram_bss      0x0003ad84       0x38 build/tools/./source/states/SplashScreens/LangSelectScreenState/LangSelectScreenState.o
                0x0003ad84                _LangSelectScreenState_vTable
 .dram_bss      0x0003adbc       0x38 build/tools/./source/states/SplashScreens/PrecautionScreenState/PrecautionScreenState.o
                0x0003adbc                _PrecautionScreenState_vTable
 .dram_bss      0x0003adf4       0x38 build/tools/./source/states/SplashScreens/SplashScreenState/SplashScreenState.o
                0x0003adf4                _SplashScreenState_vTable
 .dram_bss      0x0003ae2c       0x60 build/tools/./source/states/TitleScreenState/TitleScreenState.o
                0x0003ae2c                _TitleScreenState_vTable
 .dram_bss      0x0003ae8c       0x54 build\libvuengine.a(Game.o)
                0x0003ae8c                _Game_vTable
 .dram_bss      0x0003aee0       0x18 build\libvuengine.a(Error.o)
                0x0003aee0                _Error_vTable
 .dram_bss      0x0003aef8       0x1c build\libvuengine.a(FrameRate.o)
                0x0003aef8                _FrameRate_vTable
 .dram_bss      0x0003af14       0x1c build\libvuengine.a(I18n.o)
                0x0003af14                _I18n_vTable
 .dram_bss      0x0003af30       0x10 build\libvuengine.a(VirtualNode.o)
                0x0003af30                _VirtualNode_vTable
 .dram_bss      0x0003af40       0x10 build\libvuengine.a(VirtualList.o)
                0x0003af40                _VirtualList_vTable
 .dram_bss      0x0003af50       0x28 build\libvuengine.a(State.o)
                0x0003af50                _State_vTable
 .dram_bss      0x0003af78       0x14 build\libvuengine.a(Clock.o)
                0x0003af78                _Clock_vTable
 .dram_bss      0x0003af8c       0x10 build\libvuengine.a(Object.o)
                0x0003af8c                _Object_vTable
 .dram_bss      0x0003af9c       0x10 build\libvuengine.a(MemoryPool.o)
                0x0003af9c                _MemoryPool_vTable
 .dram_bss      0x0003afac       0x1c build\libvuengine.a(ClockManager.o)
                0x0003afac                _ClockManager_vTable
 .dram_bss      0x0003afc8       0x24 build\libvuengine.a(MessageDispatcher.o)
                0x0003afc8                _MessageDispatcher_vTable
 .dram_bss      0x0003afec       0x10 build\libvuengine.a(Telegram.o)
                0x0003afec                _Telegram_vTable
 .dram_bss      0x0003affc       0x10 build\libvuengine.a(StateMachine.o)
                0x0003affc                _StateMachine_vTable
 .dram_bss      0x0003b00c       0x28 build\libvuengine.a(CameraEffectManager.o)
                0x0003b00c                _CameraEffectManager_vTable
 .dram_bss      0x0003b034       0x1c build\libvuengine.a(CameraMovementManager.o)
                0x0003b034                _CameraMovementManager_vTable
 .dram_bss      0x0003b050       0x64 build\libvuengine.a(Camera.o)
                0x0003b050                _Camera_vTable
 .dram_bss      0x0003b0b4       0x24 build\libvuengine.a(Printing.o)
                0x0003b0b4                _Printing_vTable
 .dram_bss      0x0003b0d8       0x34 build\libvuengine.a(SpriteManager.o)
                0x0003b0d8                _SpriteManager_vTable
 .dram_bss      0x0003b10c       0x58 build\libvuengine.a(Sprite.o)
                0x0003b10c                _Sprite_vTable
 .dram_bss      0x0003b164       0x18 build\libvuengine.a(AnimationCoordinator.o)
                0x0003b164                _AnimationCoordinator_vTable
 .dram_bss      0x0003b17c       0x10 build\libvuengine.a(AnimationController.o)
                0x0003b17c                _AnimationController_vTable
 .dram_bss      0x0003b18c       0x1c build\libvuengine.a(AnimationCoordinatorFactory.o)
                0x0003b18c                _AnimationCoordinatorFactory_vTable
 .dram_bss      0x0003b1a8       0x58 build\libvuengine.a(BgmapSprite.o)
                0x0003b1a8                _BgmapSprite_vTable
 .dram_bss      0x0003b200       0x38 build\libvuengine.a(ParamTableManager.o)
                0x0003b200                _ParamTableManager_vTable
 .dram_bss      0x0003b238       0x18 build\libvuengine.a(BgmapAnimationCoordinator.o)
                0x0003b238                _BgmapAnimationCoordinator_vTable
 .dram_bss      0x0003b250       0x58 build\libvuengine.a(MBgmapSprite.o)
                0x0003b250                _MBgmapSprite_vTable
 .dram_bss      0x0003b2a8       0x58 build\libvuengine.a(BgmapAnimatedSprite.o)
                0x0003b2a8                _BgmapAnimatedSprite_vTable
 .dram_bss      0x0003b300       0x58 build\libvuengine.a(ObjectSpriteContainer.o)
                0x0003b300                _ObjectSpriteContainer_vTable
 .dram_bss      0x0003b358       0x58 build\libvuengine.a(ObjectAnimatedSprite.o)
                0x0003b358                _ObjectAnimatedSprite_vTable
 .dram_bss      0x0003b3b0       0x28 build\libvuengine.a(ObjectSpriteContainerManager.o)
                0x0003b3b0                _ObjectSpriteContainerManager_vTable
 .dram_bss      0x0003b3d8       0x58 build\libvuengine.a(ObjectSprite.o)
                0x0003b3d8                _ObjectSprite_vTable
 .dram_bss      0x0003b430       0x18 build\libvuengine.a(ObjectAnimationCoordinator.o)
                0x0003b430                _ObjectAnimationCoordinator_vTable
 .dram_bss      0x0003b448       0x18 build\libvuengine.a(Texture.o)
                0x0003b448                _Texture_vTable
 .dram_bss      0x0003b460      0x714 build\libvuengine.a(BgmapTextureManager.o)
                0x0003b460                _BgmapTextureManager_vTable
 .dram_bss      0x0003bb74       0x18 build\libvuengine.a(BgmapTexture.o)
                0x0003bb74                _BgmapTexture_vTable
 .dram_bss      0x0003bb8c       0x24 build\libvuengine.a(CharSetManager.o)
                0x0003bb8c                _CharSetManager_vTable
 .dram_bss      0x0003bbb0       0x10 build\libvuengine.a(CharSet.o)
                0x0003bbb0                _CharSet_vTable
 .dram_bss      0x0003bbc0       0x18 build\libvuengine.a(ObjectTexture.o)
                0x0003bbc0                _ObjectTexture_vTable
 .dram_bss      0x0003bbd8       0x14 build\libvuengine.a(Wireframe.o)
                0x0003bbd8                _Wireframe_vTable
 .dram_bss      0x0003bbec       0x14 build\libvuengine.a(Polyhedron.o)
                0x0003bbec                _Polyhedron_vTable
 .dram_bss      0x0003bc00       0x18 build\libvuengine.a(DirectDraw.o)
                0x0003bc00                _DirectDraw_vTable
 .dram_bss      0x0003bc18       0x14 build\libvuengine.a(Sphere.o)
                0x0003bc18                _Sphere_vTable
 .dram_bss      0x0003bc2c       0x1c build\libvuengine.a(WireframeManager.o)
                0x0003bc2c                _WireframeManager_vTable
 .dram_bss      0x0003bc48       0x28 build\libvuengine.a(HardwareManager.o)
                0x0003bc48                _HardwareManager_vTable
 .dram_bss      0x0003bc70       0x1c build\libvuengine.a(SRAMManager.o)
                0x0003bc70                _SRAMManager_vTable
 .dram_bss      0x0003bc8c       0x3c build\libvuengine.a(KeyPadManager.o)
                0x0003bc8c                _KeypadManager_vTable
 .dram_bss      0x0003bcc8       0x24 build\libvuengine.a(TimerManager.o)
                0x0003bcc8                _TimerManager_vTable
 .dram_bss      0x0003bcec       0x24 build\libvuengine.a(VIPManager.o)
                0x0003bcec                _VIPManager_vTable
 .dram_bss      0x0003bd10       0x3c build\libvuengine.a(SoundManager.o)
                0x0003bd10                _SoundManager_vTable
 .dram_bss      0x0003bd4c       0x38 build\libvuengine.a(Shape.o)
                0x0003bd4c                _Shape_vTable
 .dram_bss      0x0003bd84       0x10 build\libvuengine.a(CollisionManager.o)
                0x0003bd84                _CollisionManager_vTable
 .dram_bss      0x0003bd94       0x18 build\libvuengine.a(CollisionHelper.o)
                0x0003bd94                _CollisionHelper_vTable
 .dram_bss      0x0003bdac       0x10 build\libvuengine.a(PhysicalWorld.o)
                0x0003bdac                _PhysicalWorld_vTable
 .dram_bss      0x0003bdbc       0x38 build\libvuengine.a(InverseBox.o)
                0x0003bdbc                _InverseBox_vTable
 .dram_bss      0x0003bdf4       0x14 build\libvuengine.a(Body.o)
                0x0003bdf4                _Body_vTable
 .dram_bss      0x0003be08       0x38 build\libvuengine.a(Box.o)
                0x0003be08                _Box_vTable
 .dram_bss      0x0003be40       0x38 build\libvuengine.a(Ball.o)
                0x0003be40                _Ball_vTable
 .dram_bss      0x0003be78       0xb4 build\libvuengine.a(UiContainer.o)
                0x0003be78                _UiContainer_vTable
 .dram_bss      0x0003bf2c       0x68 build\libvuengine.a(SpatialObject.o)
                0x0003bf2c                _SpatialObject_vTable
 .dram_bss      0x0003bf94       0xb8 build\libvuengine.a(Stage.o)
                0x0003bf94                _Stage_vTable
 .dram_bss      0x0003c04c       0x10 build\libvuengine.a(EntityFactory.o)
                0x0003c04c                _EntityFactory_vTable
 .dram_bss      0x0003c05c       0xd0 build\libvuengine.a(ReflectiveEntity.o)
                0x0003c05c                _ReflectiveEntity_vTable
 .dram_bss      0x0003c12c       0xcc build\libvuengine.a(Entity.o)
                0x0003c12c                _Entity_vTable
 .dram_bss      0x0003c1f8       0xe0 build\libvuengine.a(Actor.o)
                0x0003c1f8                _Actor_vTable
 .dram_bss      0x0003c2d8       0xcc build\libvuengine.a(ManagedEntity.o)
                0x0003c2d8                _ManagedEntity_vTable
 .dram_bss      0x0003c3a4       0xb0 build\libvuengine.a(Container.o)
                0x0003c3a4                _Container_vTable
 .dram_bss      0x0003c454       0xcc build\libvuengine.a(AnimatedEntity.o)
                0x0003c454                _AnimatedEntity_vTable
 .dram_bss      0x0003c520       0x10 build\libvuengine.a(ParticleRemover.o)
                0x0003c520                _ParticleRemover_vTable
 .dram_bss      0x0003c530       0x80 build\libvuengine.a(SolidParticle.o)
                0x0003c530                _SolidParticle_vTable
 .dram_bss      0x0003c5b0       0x80 build\libvuengine.a(Particle.o)
                0x0003c5b0                _Particle_vTable
 .dram_bss      0x0003c630       0x14 build\libvuengine.a(ParticleBody.o)
                0x0003c630                _ParticleBody_vTable
 .dram_bss      0x0003c644       0xcc build\libvuengine.a(ParticleSystem.o)
                0x0003c644                _ParticleSystem_vTable
 .dram_bss      0x0003c710       0x60 build\libvuengine.a(DebugState.o)
                0x0003c710                _DebugState_vTable
 .dram_bss      0x0003c770       0x60 build\libvuengine.a(StageEditorState.o)
                0x0003c770                _StageEditorState_vTable
 .dram_bss      0x0003c7d0       0x30 build\libvuengine.a(GameState.o)
                0x0003c7d0                _GameState_vTable
 .dram_bss      0x0003c800       0x60 build\libvuengine.a(AnimationInspectorState.o)
                0x0003c800                _AnimationInspectorState_vTable
 .dram_bss      0x0003c860       0x34 build\libvuengine.a(StageEditor.o)
                0x0003c860                _StageEditor_vTable
 .dram_bss      0x0003c894       0x10 build\libvuengine.a(OptionsSelector.o)
                0x0003c894                _OptionsSelector_vTable
 .dram_bss      0x0003c8a4       0x4c build\libvuengine.a(Debug.o)
                0x0003c8a4                _Debug_vTable
 .dram_bss      0x0003c8f0       0x9c build\libvuengine.a(AnimationInspector.o)
                0x0003c8f0                _AnimationInspector_vTable
                0x0003c98c                PROVIDE (__dram_bss_end, .)

.sram_bss       0x06000000        0x0
                0x06000000                PROVIDE (__sram_bss_start, .)
 *(.sram_bss*)
                0x06000000                PROVIDE (__sram_bss_end, .)
                0x070824ee                v1 = ((v + SIZEOF (.data)) + SIZEOF (.sdata))
                0x0708270d                v2 = (v1 + 0x21f)
                0x0008270d                v3 = (v2 & 0xffffff)
                0x000c378f                v4 = (v3 | (v3 >> 0x1))
                0x000f3fef                v5 = (v4 | (v4 >> 0x2))
                0x000fffff                v6 = (v5 | (v5 >> 0x4))
                0x000fffff                v7 = (v6 | (v6 >> 0x8))
                0x000fffff                v8 = (v7 | (v7 >> 0x10))
                0x070ffde0                __vbvectors_vma = ((__text_vma + v8) - 0x21f)

.vbvectors      0x070ffde0      0x220
 *(.vbvectors)
 .vbvectors     0x070ffde0      0x220 build\libvuengine.a(crt0.o)
                0x070ffde0                _rom_title
OUTPUT(build/tools/output-tools.elf elf32-v810)

.comment        0x00000000       0x11
 .comment       0x00000000       0x11 build/tools/./source/globals.o
                                 0x12 (size before relaxing)
 .comment       0x00000000       0x12 build/tools/./source/game.o
 .comment       0x00000000       0x12 build/tools/./source/components/ProgressManager.o
 .comment       0x00000000       0x12 build/tools/./source/components/AffineTransformations.o
 .comment       0x00000000       0x12 build/tools/./source/components/PostProcessingEffects.o
 .comment       0x00000000       0x12 build/tools/./source/components/HbiasEffects.o
 .comment       0x00000000       0x12 build/tools/./source/components/EventManager.o
 .comment       0x00000000       0x12 build/tools/./source/components/CustomCameraEffectManager.o
 .comment       0x00000000       0x12 build/tools/./source/components/CameraTriggerEntity.o
 .comment       0x00000000       0x12 build/tools/./source/components/CustomCameraMovementManager.o
 .comment       0x00000000       0x12 build/tools/./source/components/graphics/HbiasMaskMBgmapSprite.o
 .comment       0x00000000       0x12 build/tools/./source/components/graphics/GUISprite.o
 .comment       0x00000000       0x12 build/tools/./source/objects/actors/Hero/Hero.o
 .comment       0x00000000       0x12 build/tools/./source/objects/actors/Hero/states/HeroState.o
 .comment       0x00000000       0x12 build/tools/./source/objects/actors/Hero/states/HeroMoving.o
 .comment       0x00000000       0x12 build/tools/./source/objects/actors/Hero/states/HeroIdle.o
 .comment       0x00000000       0x12 build/tools/./source/objects/actors/MovingEntity/MovingEntity.o
 .comment       0x00000000       0x12 build/tools/./source/objects/elements/Collision/Collision.o
 .comment       0x00000000       0x12 build/tools/./source/objects/elements/Collision/CollisionDefinition.o
 .comment       0x00000000       0x12 build/tools/./source/objects/elements/Door/Door.o
 .comment       0x00000000       0x12 build/tools/./source/objects/elements/Door/LayerSwitchDoor.o
 .comment       0x00000000       0x12 build/tools/./source/objects/elements/Door/GoalDoor.o
 .comment       0x00000000       0x12 build/tools/./source/objects/elements/Door/KeyDoor.o
 .comment       0x00000000       0x12 build/tools/./source/objects/elements/Gui/Gui.o
 .comment       0x00000000       0x12 build/tools/./source/objects/items/Collectable/Collectable.o
 .comment       0x00000000       0x12 build/tools/./source/objects/items/Item/Item.o
 .comment       0x00000000       0x12 build/tools/./source/states/AutoPauseScreenState/AutoPauseScreenState.o
 .comment       0x00000000       0x12 build/tools/./source/states/LevelDoneScreenState/LevelDoneScreenState.o
 .comment       0x00000000       0x12 build/tools/./source/states/OptionsScreenState/OptionsScreenState.o
 .comment       0x00000000       0x12 build/tools/./source/states/PauseScreenState/PauseScreenState.o
 .comment       0x00000000       0x12 build/tools/./source/states/PlatformerLevelState/PlatformerLevelState.o
 .comment       0x00000000       0x12 build/tools/./source/states/SplashScreens/AdjustmentScreenState/AdjustmentScreenState.o
 .comment       0x00000000       0x12 build/tools/./source/states/SplashScreens/AutoPauseSelectScreenState/AutoPauseSelectScreenState.o
 .comment       0x00000000       0x12 build/tools/./source/states/SplashScreens/LangSelectScreenState/LangSelectScreenState.o
 .comment       0x00000000       0x12 build/tools/./source/states/SplashScreens/PrecautionScreenState/PrecautionScreenState.o
 .comment       0x00000000       0x12 build/tools/./source/states/SplashScreens/SplashScreenState/SplashScreenState.o
 .comment       0x00000000       0x12 build/tools/./source/states/TitleScreenState/TitleScreenState.o
 .comment       0x00000000       0x12 build/tools/./assets/data/ColumnTable.o
 .comment       0x00000000       0x12 build/tools/./assets/fonts/Fonts.o
 .comment       0x00000000       0x12 build/tools/./assets/images/AdjustmentScreen/Binary/AdjustmentScreenVUEngineIcon.o
 .comment       0x00000000       0x12 build/tools/./assets/images/AdjustmentScreen/Binary/AdjustmentScreenVUEngineLogo.o
 .comment       0x00000000       0x12 build/tools/./assets/images/AdjustmentScreen/Binary/AdjustmentScreenVUEngineBG.o
 .comment       0x00000000       0x12 build/tools/./assets/images/AdjustmentScreen/Definition/AdjustmentScreenVUEngineBGDefinition.o
 .comment       0x00000000       0x12 build/tools/./assets/images/AdjustmentScreen/Definition/AdjustmentScreenVUEngineIconDefinition.o
 .comment       0x00000000       0x12 build/tools/./assets/images/AdjustmentScreen/Definition/AdjustmentScreenVUEngineLogoDefinition.o
 .comment       0x00000000       0x12 build/tools/./assets/images/Buildings/Binary/Barberia1.o
 .comment       0x00000000       0x12 build/tools/./assets/images/Buildings/Binary/House5Black.o
 .comment       0x00000000       0x12 build/tools/./assets/images/Buildings/Binary/House4.o
 .comment       0x00000000       0x12 build/tools/./assets/images/Buildings/Binary/House1Black.o
 .comment       0x00000000       0x12 build/tools/./assets/images/Buildings/Binary/House2.o
 .comment       0x00000000       0x12 build/tools/./assets/images/Buildings/Binary/Wall1.o
 .comment       0x00000000       0x12 build/tools/./assets/images/Buildings/Binary/House5.o
 .comment       0x00000000       0x12 build/tools/./assets/images/Buildings/Binary/House6Black.o
 .comment       0x00000000       0x12 build/tools/./assets/images/Buildings/Binary/House1.o
 .comment       0x00000000       0x12 build/tools/./assets/images/Buildings/Binary/House3.o
 .comment       0x00000000       0x12 build/tools/./assets/images/Buildings/Binary/House3Black.o
 .comment       0x00000000       0x12 build/tools/./assets/images/Buildings/Binary/Garage1Black.o
 .comment       0x00000000       0x12 build/tools/./assets/images/Buildings/Binary/Barberia1Black.o
 .comment       0x00000000       0x12 build/tools/./assets/images/Buildings/Binary/House4Black.o
 .comment       0x00000000       0x12 build/tools/./assets/images/Buildings/Binary/Garage2.o
 .comment       0x00000000       0x12 build/tools/./assets/images/Buildings/Binary/Playground1.o
 .comment       0x00000000       0x12 build/tools/./assets/images/Buildings/Binary/Garage1.o
 .comment       0x00000000       0x12 build/tools/./assets/images/Buildings/Binary/House2Black.o
 .comment       0x00000000       0x12 build/tools/./assets/images/Buildings/Binary/House6.o
 .comment       0x00000000       0x12 build/tools/./assets/images/Buildings/Binary/Wall1Black.o
 .comment       0x00000000       0x12 build/tools/./assets/images/Buildings/Definition/House4Definition.o
 .comment       0x00000000       0x12 build/tools/./assets/images/Buildings/Definition/House6Definition.o
 .comment       0x00000000       0x12 build/tools/./assets/images/Buildings/Definition/Garage2Definition.o
 .comment       0x00000000       0x12 build/tools/./assets/images/Buildings/Definition/Playground1Definition.o
 .comment       0x00000000       0x12 build/tools/./assets/images/Buildings/Definition/Wall1Definition.o
 .comment       0x00000000       0x12 build/tools/./assets/images/Buildings/Definition/House2Definition.o
 .comment       0x00000000       0x12 build/tools/./assets/images/Buildings/Definition/Garage1Definition.o
 .comment       0x00000000       0x12 build/tools/./assets/images/Buildings/Definition/House3Definition.o
 .comment       0x00000000       0x12 build/tools/./assets/images/Buildings/Definition/House1Definition.o
 .comment       0x00000000       0x12 build/tools/./assets/images/Buildings/Definition/Barberia1Definition.o
 .comment       0x00000000       0x12 build/tools/./assets/images/Buildings/Definition/House5Definition.o
 .comment       0x00000000       0x12 build/tools/./assets/images/CityBackground/Binary/CityBackgroundB.o
 .comment       0x00000000       0x12 build/tools/./assets/images/CityBackground/Binary/CityBackgroundA.o
 .comment       0x00000000       0x12 build/tools/./assets/images/CityBackground/Definition/CityBgDefinition.o
 .comment       0x00000000       0x12 build/tools/./assets/images/CityFloor/Binary/CityFloor.o
 .comment       0x00000000       0x12 build/tools/./assets/images/CityFloor/Definition/CityFloorDefinition.o
 .comment       0x00000000       0x12 build/tools/./assets/images/Decoration/Binary/PlaygroundSign1.o
 .comment       0x00000000       0x12 build/tools/./assets/images/Decoration/Binary/Bike1.o
 .comment       0x00000000       0x12 build/tools/./assets/images/Decoration/Binary/BushBg1.o
 .comment       0x00000000       0x12 build/tools/./assets/images/Decoration/Binary/Lantern1.o
 .comment       0x00000000       0x12 build/tools/./assets/images/Decoration/Binary/TreeBg1.o
 .comment       0x00000000       0x12 build/tools/./assets/images/Decoration/Binary/Motorbike1.o
 .comment       0x00000000       0x12 build/tools/./assets/images/Decoration/Binary/CarBg1.o
 .comment       0x00000000       0x12 build/tools/./assets/images/Decoration/Binary/Bench1.o
 .comment       0x00000000       0x12 build/tools/./assets/images/Decoration/Binary/TrashBin1.o
 .comment       0x00000000       0x12 build/tools/./assets/images/Decoration/Binary/PlaygroundSign1Black.o
 .comment       0x00000000       0x12 build/tools/./assets/images/Decoration/Binary/Fence2.o
 .comment       0x00000000       0x12 build/tools/./assets/images/Decoration/Binary/BushBg2.o
 .comment       0x00000000       0x12 build/tools/./assets/images/Decoration/Binary/Car1.o
 .comment       0x00000000       0x12 build/tools/./assets/images/Decoration/Binary/Clothes1.o
 .comment       0x00000000       0x12 build/tools/./assets/images/Decoration/Binary/Container1.o
 .comment       0x00000000       0x12 build/tools/./assets/images/Decoration/Binary/Fence1.o
 .comment       0x00000000       0x12 build/tools/./assets/images/Decoration/Binary/Lantern1Black.o
 .comment       0x00000000       0x12 build/tools/./assets/images/Decoration/Binary/Statue1.o
 .comment       0x00000000       0x12 build/tools/./assets/images/Decoration/Binary/Thing1.o
 .comment       0x00000000       0x12 build/tools/./assets/images/Decoration/Binary/Tree1.o
 .comment       0x00000000       0x12 build/tools/./assets/images/Decoration/Definition/Thing1Definition.o
 .comment       0x00000000       0x12 build/tools/./assets/images/Decoration/Definition/Tree1Definition.o
 .comment       0x00000000       0x12 build/tools/./assets/images/Decoration/Definition/Clothes1Definition.o
 .comment       0x00000000       0x12 build/tools/./assets/images/Decoration/Definition/Container1Definition.o
 .comment       0x00000000       0x12 build/tools/./assets/images/Decoration/Definition/Statue1Definition.o
 .comment       0x00000000       0x12 build/tools/./assets/images/Decoration/Definition/Bike1Definition.o
 .comment       0x00000000       0x12 build/tools/./assets/images/Decoration/Definition/PlaygroundSign1Definition.o
 .comment       0x00000000       0x12 build/tools/./assets/images/Decoration/Definition/Fence2Definition.o
 .comment       0x00000000       0x12 build/tools/./assets/images/Decoration/Definition/BushBg1Definition.o
 .comment       0x00000000       0x12 build/tools/./assets/images/Decoration/Definition/Fence1Definition.o
 .comment       0x00000000       0x12 build/tools/./assets/images/Decoration/Definition/Lantern1Definition.o
 .comment       0x00000000       0x12 build/tools/./assets/images/Decoration/Definition/TrashBin1Definition.o
 .comment       0x00000000       0x12 build/tools/./assets/images/Decoration/Definition/BushBg2Definition.o
 .comment       0x00000000       0x12 build/tools/./assets/images/Decoration/Definition/Bench1Definition.o
 .comment       0x00000000       0x12 build/tools/./assets/images/Decoration/Definition/TreeBg1Definition.o
 .comment       0x00000000       0x12 build/tools/./assets/images/Decoration/Definition/Motorbike1Definition.o
 .comment       0x00000000       0x12 build/tools/./assets/images/Decoration/Definition/Car1Definition.o
 .comment       0x00000000       0x12 build/tools/./assets/images/Decoration/Definition/CarBg1Definition.o
 .comment       0x00000000       0x12 build/tools/./assets/images/Fonts/Binary/FontDefault.o
 .comment       0x00000000       0x12 build/tools/./assets/images/Fonts/Definition/FontDefaultDefinition.o
 .comment       0x00000000       0x12 build/tools/./assets/images/Gui/Binary/Gui.o
 .comment       0x00000000       0x12 build/tools/./assets/images/Gui/Definition/GuiDefinition.o
 .comment       0x00000000       0x12 build/tools/./assets/images/Hero/Binary/HeroBlack.o
 .comment       0x00000000       0x12 build/tools/./assets/images/Hero/Binary/Hero.o
 .comment       0x00000000       0x12 build/tools/./assets/images/Hero/Definition/HeroDefinition.o
 .comment       0x00000000       0x12 build/tools/./assets/images/TitleScreen/Binary/TitleCapitanBlack.o
 .comment       0x00000000       0x12 build/tools/./assets/images/TitleScreen/Binary/TitleEarth.o
 .comment       0x00000000       0x12 build/tools/./assets/images/TitleScreen/Binary/TitleLogo.o
 .comment       0x00000000       0x12 build/tools/./assets/images/TitleScreen/Binary/TitleCapitan.o
 .comment       0x00000000       0x12 build/tools/./assets/images/TitleScreen/Binary/TitleSubTitle.o
 .comment       0x00000000       0x12 build/tools/./assets/images/TitleScreen/Binary/TitleLogoBlack.o
 .comment       0x00000000       0x12 build/tools/./assets/images/TitleScreen/Definition/TitleEarthDefinition.o
 .comment       0x00000000       0x12 build/tools/./assets/images/TitleScreen/Definition/TitleSubTitleDefinition.o
 .comment       0x00000000       0x12 build/tools/./assets/images/TitleScreen/Definition/TitleCapitanDefinition.o
 .comment       0x00000000       0x12 build/tools/./assets/images/TitleScreen/Definition/TitleLogoDefinition.o
 .comment       0x00000000       0x12 build/tools/./assets/languages/Language_DE.o
 .comment       0x00000000       0x12 build/tools/./assets/languages/Language_ES.o
 .comment       0x00000000       0x12 build/tools/./assets/languages/Languages.o
 .comment       0x00000000       0x12 build/tools/./assets/languages/Language_FR.o
 .comment       0x00000000       0x12 build/tools/./assets/languages/Language_EN.o
 .comment       0x00000000       0x12 build/tools/./assets/levels/Level1Definition.o
 .comment       0x00000000       0x12 build/tools/./assets/sounds/CollectDefinition.o
 .comment       0x00000000       0x12 build/tools/./assets/sounds/BGM1Definition.o
 .comment       0x00000000       0x12 build/tools/./assets/sounds/JumpDefinition.o
 .comment       0x00000000       0x12 build/tools/./assets/sounds/FireDefinition.o
 .comment       0x00000000       0x12 build/tools/./assets/sounds/BGM2Definition.o
 .comment       0x00000000       0x12 build/tools/./assets/stages/Level1/Definition/Level1MainStageDefinition.o
 .comment       0x00000000       0x12 build/tools/./assets/stages/Various/Definition/TitleScreenStageDefinition.o
 .comment       0x00000000       0x12 build/tools/./assets/stages/Various/Definition/EmptyStageDefinition.o
 .comment       0x00000000       0x12 build/tools/./assets/stages/Various/Definition/AdjustmentScreenStageDefinition.o
 .comment       0x00000000       0x12 build/tools/./assets/stages/Various/Definition/PauseScreenStageDefinition.o
 .comment       0x00000000       0x12 C:/vbde/samples/vuengine/capitan-sevilla/lib/compiler/setupClasses.o
 .comment       0x00000000       0x12 build\libvuengine.a(Game.o)
 .comment       0x00000000       0x12 build\libvuengine.a(Error.o)
 .comment       0x00000000       0x12 build\libvuengine.a(FrameRate.o)
 .comment       0x00000000       0x12 build\libvuengine.a(I18n.o)
 .comment       0x00000000       0x12 build\libvuengine.a(VirtualNode.o)
 .comment       0x00000000       0x12 build\libvuengine.a(VirtualList.o)
 .comment       0x00000000       0x12 build\libvuengine.a(State.o)
 .comment       0x00000000       0x12 build\libvuengine.a(Clock.o)
 .comment       0x00000000       0x12 build\libvuengine.a(Object.o)
 .comment       0x00000000       0x12 build\libvuengine.a(MemoryPool.o)
 .comment       0x00000000       0x12 build\libvuengine.a(ClockManager.o)
 .comment       0x00000000       0x12 build\libvuengine.a(MessageDispatcher.o)
 .comment       0x00000000       0x12 build\libvuengine.a(Telegram.o)
 .comment       0x00000000       0x12 build\libvuengine.a(StateMachine.o)
 .comment       0x00000000       0x12 build\libvuengine.a(Mem.o)
 .comment       0x00000000       0x12 build\libvuengine.a(Utilities.o)
 .comment       0x00000000       0x12 build\libvuengine.a(Math.o)
 .comment       0x00000000       0x12 build\libvuengine.a(CameraEffectManager.o)
 .comment       0x00000000       0x12 build\libvuengine.a(CameraMovementManager.o)
 .comment       0x00000000       0x12 build\libvuengine.a(Camera.o)
 .comment       0x00000000       0x12 build\libvuengine.a(Printing.o)
 .comment       0x00000000       0x12 build\libvuengine.a(SpriteManager.o)
 .comment       0x00000000       0x12 build\libvuengine.a(Sprite.o)
 .comment       0x00000000       0x12 build\libvuengine.a(AnimationCoordinator.o)
 .comment       0x00000000       0x12 build\libvuengine.a(AnimationController.o)
 .comment       0x00000000       0x12 build\libvuengine.a(AnimationCoordinatorFactory.o)
 .comment       0x00000000       0x12 build\libvuengine.a(BgmapSprite.o)
 .comment       0x00000000       0x12 build\libvuengine.a(ParamTableManager.o)
 .comment       0x00000000       0x12 build\libvuengine.a(BgmapAnimationCoordinator.o)
 .comment       0x00000000       0x12 build\libvuengine.a(MBgmapSprite.o)
 .comment       0x00000000       0x12 build\libvuengine.a(BgmapAnimatedSprite.o)
 .comment       0x00000000       0x12 build\libvuengine.a(ObjectSpriteContainer.o)
 .comment       0x00000000       0x12 build\libvuengine.a(ObjectAnimatedSprite.o)
 .comment       0x00000000       0x12 build\libvuengine.a(ObjectSpriteContainerManager.o)
 .comment       0x00000000       0x12 build\libvuengine.a(ObjectSprite.o)
 .comment       0x00000000       0x12 build\libvuengine.a(ObjectAnimationCoordinator.o)
 .comment       0x00000000       0x12 build\libvuengine.a(Texture.o)
 .comment       0x00000000       0x12 build\libvuengine.a(BgmapTextureManager.o)
 .comment       0x00000000       0x12 build\libvuengine.a(BgmapTexture.o)
 .comment       0x00000000       0x12 build\libvuengine.a(CharSetManager.o)
 .comment       0x00000000       0x12 build\libvuengine.a(CharSet.o)
 .comment       0x00000000       0x12 build\libvuengine.a(ObjectTexture.o)
 .comment       0x00000000       0x12 build\libvuengine.a(Wireframe.o)
 .comment       0x00000000       0x12 build\libvuengine.a(Polyhedron.o)
 .comment       0x00000000       0x12 build\libvuengine.a(DirectDraw.o)
 .comment       0x00000000       0x12 build\libvuengine.a(Sphere.o)
 .comment       0x00000000       0x12 build\libvuengine.a(WireframeManager.o)
 .comment       0x00000000       0x12 build\libvuengine.a(HardwareManager.o)
 .comment       0x00000000       0x12 build\libvuengine.a(SRAMManager.o)
 .comment       0x00000000       0x12 build\libvuengine.a(KeyPadManager.o)
 .comment       0x00000000       0x12 build\libvuengine.a(TimerManager.o)
 .comment       0x00000000       0x12 build\libvuengine.a(VIPManager.o)
 .comment       0x00000000       0x12 build\libvuengine.a(SoundManager.o)
 .comment       0x00000000       0x12 build\libvuengine.a(Shape.o)
 .comment       0x00000000       0x12 build\libvuengine.a(CollisionManager.o)
 .comment       0x00000000       0x12 build\libvuengine.a(CollisionHelper.o)
 .comment       0x00000000       0x12 build\libvuengine.a(PhysicalWorld.o)
 .comment       0x00000000       0x12 build\libvuengine.a(InverseBox.o)
 .comment       0x00000000       0x12 build\libvuengine.a(Body.o)
 .comment       0x00000000       0x12 build\libvuengine.a(Box.o)
 .comment       0x00000000       0x12 build\libvuengine.a(Ball.o)
 .comment       0x00000000       0x12 build\libvuengine.a(UiContainer.o)
 .comment       0x00000000       0x12 build\libvuengine.a(SpatialObject.o)
 .comment       0x00000000       0x12 build\libvuengine.a(Stage.o)
 .comment       0x00000000       0x12 build\libvuengine.a(EntityFactory.o)
 .comment       0x00000000       0x12 build\libvuengine.a(ReflectiveEntity.o)
 .comment       0x00000000       0x12 build\libvuengine.a(Entity.o)
 .comment       0x00000000       0x12 build\libvuengine.a(Actor.o)
 .comment       0x00000000       0x12 build\libvuengine.a(ManagedEntity.o)
 .comment       0x00000000       0x12 build\libvuengine.a(Container.o)
 .comment       0x00000000       0x12 build\libvuengine.a(AnimatedEntity.o)
 .comment       0x00000000       0x12 build\libvuengine.a(ParticleRemover.o)
 .comment       0x00000000       0x12 build\libvuengine.a(SolidParticle.o)
 .comment       0x00000000       0x12 build\libvuengine.a(Particle.o)
 .comment       0x00000000       0x12 build\libvuengine.a(ParticleBody.o)
 .comment       0x00000000       0x12 build\libvuengine.a(ParticleSystem.o)
 .comment       0x00000000       0x12 build\libvuengine.a(DebugState.o)
 .comment       0x00000000       0x12 build\libvuengine.a(StageEditorState.o)
 .comment       0x00000000       0x12 build\libvuengine.a(GameState.o)
 .comment       0x00000000       0x12 build\libvuengine.a(AnimationInspectorState.o)
 .comment       0x00000000       0x12 build\libvuengine.a(StageEditor.o)
 .comment       0x00000000       0x12 build\libvuengine.a(OptionsSelector.o)
 .comment       0x00000000       0x12 build\libvuengine.a(Debug.o)
 .comment       0x00000000       0x12 build\libvuengine.a(AnimationInspector.o)
 .comment       0x00000000       0x12 build\libvuengine.a(ColumnTable.o)
 .comment       0x00000000       0x12 build\libvuengine.a(VUEngineFontDefinition.o)
 .comment       0x00000000       0x12 build\libvuengine.a(Optics.o)
 .comment       0x00000000       0x12 build\libvuengine.a(Affine.o)
 .comment       0x00000000       0x12 build\libvuengine.a(VUEngineFont.o)
 .comment       0x00000000       0x12 c:/vbde/system/msys32/v810/v810-win32/bin/../lib/gcc/v810/4.7.4\libgcc.a(_divdi3.o)
 .comment       0x00000000       0x12 c:/vbde/system/msys32/v810/v810-win32/bin/../lib/gcc/v810/4.7.4\libgcc.a(_lt_sf.o)
 .comment       0x00000000       0x12 c:/vbde/system/msys32/v810/v810-win32/bin/../lib/gcc/v810/4.7.4\libgcc.a(_clz.o)
 .comment       0x00000000       0x12 c:/vbde/system/msys32/v810/v810-win32/bin/../lib/gcc/v810/4.7.4\libgcc.a(_unpack_sf.o)
 .comment       0x00000000       0x12 c:/vbde/system/msys32/v810/v810-win32/bin/../lib/gcc/v810/4.7.4\libgcc.a(_fpcmp_parts_sf.o)
 .comment       0x00000000       0x12 c:/vbde/system/msys32/v810/v810-win32/bin/../lib/gcc/v810/4.7.4/../../../../v810/lib\libc.a(lib_a-strcmp.o)
 .comment       0x00000000       0x12 c:/vbde/system/msys32/v810/v810-win32/bin/../lib/gcc/v810/4.7.4/../../../../v810/lib\libc.a(lib_a-strcpy.o)
 .comment       0x00000000       0x12 c:/vbde/system/msys32/v810/v810-win32/bin/../lib/gcc/v810/4.7.4/../../../../v810/lib\libc.a(lib_a-strlen.o)
 .comment       0x00000000       0x12 c:/vbde/system/msys32/v810/v810-win32/bin/../lib/gcc/v810/4.7.4/../../../../v810/lib\libc.a(lib_a-strncmp.o)
 .comment       0x00000000       0x12 c:/vbde/system/msys32/v810/v810-win32/bin/../lib/gcc/v810/4.7.4/../../../../v810/lib\libc.a(lib_a-strncpy.o)
 .comment       0x00000000       0x12 c:/vbde/system/msys32/v810/v810-win32/bin/../lib/gcc/v810/4.7.4/../../../../v810/lib\libc.a(lib_a-strnlen.o)

.stab           0x00000000     0x2c1c
 .stab          0x00000000      0xe88 c:/vbde/system/msys32/v810/v810-win32/bin/../lib/gcc/v810/4.7.4\libgcc.a(_divdi3.o)
 .stab          0x00000e88      0x324 c:/vbde/system/msys32/v810/v810-win32/bin/../lib/gcc/v810/4.7.4\libgcc.a(_lt_sf.o)
                                0x48c (size before relaxing)
 .stab          0x000011ac      0x15c c:/vbde/system/msys32/v810/v810-win32/bin/../lib/gcc/v810/4.7.4\libgcc.a(_clz.o)
                                0x3cc (size before relaxing)
 .stab          0x00001308      0x354 c:/vbde/system/msys32/v810/v810-win32/bin/../lib/gcc/v810/4.7.4\libgcc.a(_unpack_sf.o)
                                0x594 (size before relaxing)
 .stab          0x0000165c      0x318 c:/vbde/system/msys32/v810/v810-win32/bin/../lib/gcc/v810/4.7.4\libgcc.a(_fpcmp_parts_sf.o)
                                0x558 (size before relaxing)
 .stab          0x00001974      0x540 c:/vbde/system/msys32/v810/v810-win32/bin/../lib/gcc/v810/4.7.4/../../../../v810/lib\libc.a(lib_a-strcmp.o)
                                0x54c (size before relaxing)
 .stab          0x00001eb4      0x294 c:/vbde/system/msys32/v810/v810-win32/bin/../lib/gcc/v810/4.7.4/../../../../v810/lib\libc.a(lib_a-strcpy.o)
                                0x51c (size before relaxing)
 .stab          0x00002148      0x258 c:/vbde/system/msys32/v810/v810-win32/bin/../lib/gcc/v810/4.7.4/../../../../v810/lib\libc.a(lib_a-strlen.o)
                                0x4e0 (size before relaxing)
 .stab          0x000023a0      0x36c c:/vbde/system/msys32/v810/v810-win32/bin/../lib/gcc/v810/4.7.4/../../../../v810/lib\libc.a(lib_a-strncmp.o)
                                0x5f4 (size before relaxing)
 .stab          0x0000270c      0x300 c:/vbde/system/msys32/v810/v810-win32/bin/../lib/gcc/v810/4.7.4/../../../../v810/lib\libc.a(lib_a-strncpy.o)
                                0x588 (size before relaxing)
 .stab          0x00002a0c      0x210 c:/vbde/system/msys32/v810/v810-win32/bin/../lib/gcc/v810/4.7.4/../../../../v810/lib\libc.a(lib_a-strnlen.o)
                                0x498 (size before relaxing)

.stabstr        0x00000000     0x7ae5
 .stabstr       0x00000000     0x7ae5 c:/vbde/system/msys32/v810/v810-win32/bin/../lib/gcc/v810/4.7.4\libgcc.a(_divdi3.o)
